

Microchip MPLAB XC8 Assembler V2.10 build 88905656 
                                                                                               Sat Feb 22 01:26:21 2020

Microchip MPLAB XC8 C Compiler v2.10 (Free license) build 20190730164152 Og1 
     1                           	processor	16F887
     2                           	opt	pw 120
     3                           	opt	flic
     4                           	psect	strings,global,class=STRING,delta=2
     5                           	psect	cinit,global,class=CODE,merge=1,delta=2
     6                           	psect	bssBANK0,global,class=BANK0,space=1,delta=1
     7                           	psect	bssBANK1,global,class=BANK1,space=1,delta=1
     8                           	psect	cstackCOMMON,global,class=COMMON,space=1,delta=1
     9                           	psect	cstackBANK0,global,class=BANK0,space=1,delta=1
    10                           	psect	maintext,global,class=CODE,split=1,delta=2
    11                           	psect	text1,local,class=CODE,merge=1,delta=2
    12                           	psect	text2,local,class=CODE,merge=1,delta=2
    13                           	psect	text3,local,class=CODE,merge=1,delta=2,group=1
    14                           	psect	text4,local,class=CODE,merge=1,delta=2,group=1
    15                           	psect	text5,local,class=CODE,merge=1,delta=2
    16                           	psect	text6,local,class=CODE,merge=1,delta=2
    17                           	psect	text7,local,class=CODE,merge=1,delta=2
    18                           	psect	text8,local,class=CODE,merge=1,delta=2
    19                           	psect	text9,local,class=CODE,merge=1,delta=2
    20                           	psect	text10,local,class=CODE,merge=1,delta=2
    21                           	psect	text11,local,class=CODE,merge=1,delta=2,group=1
    22                           	psect	text12,local,class=CODE,merge=1,delta=2,group=1
    23                           	psect	text13,local,class=CODE,merge=1,delta=2,group=1
    24                           	psect	text14,local,class=CODE,merge=1,delta=2,group=1
    25                           	psect	text15,local,class=CODE,merge=1,delta=2,group=1
    26                           	psect	text16,local,class=CODE,merge=1,delta=2,group=1
    27                           	psect	text17,local,class=CODE,merge=1,delta=2,group=1
    28                           	psect	text18,local,class=CODE,merge=1,delta=2
    29                           	psect	text19,local,class=CODE,merge=1,delta=2
    30                           	psect	text20,local,class=CODE,merge=1,delta=2
    31                           	psect	text21,local,class=CODE,merge=1,delta=2
    32                           	psect	text22,local,class=CODE,merge=1,delta=2
    33                           	psect	text23,local,class=CODE,merge=1,delta=2
    34                           	psect	text24,local,class=CODE,merge=1,delta=2,group=1
    35                           	dabs	1,0x7E,2
    36  0000                     
    37                           ; Version 2.10
    38                           ; Generated 31/07/2019 GMT
    39                           ; 
    40                           ; Copyright © 2019, Microchip Technology Inc. and its subsidiaries ("Microchip")
    41                           ; All rights reserved.
    42                           ; 
    43                           ; This software is developed by Microchip Technology Inc. and its subsidiaries ("Microch
      +                          ip").
    44                           ; 
    45                           ; Redistribution and use in source and binary forms, with or without modification, are
    46                           ; permitted provided that the following conditions are met:
    47                           ; 
    48                           ;     1. Redistributions of source code must retain the above copyright notice, this lis
      +                          t of
    49                           ;        conditions and the following disclaimer.
    50                           ; 
    51                           ;     2. Redistributions in binary form must reproduce the above copyright notice, this 
      +                          list
    52                           ;        of conditions and the following disclaimer in the documentation and/or other
    53                           ;        materials provided with the distribution.
    54                           ; 
    55                           ;     3. Microchip's name may not be used to endorse or promote products derived from th
      +                          is
    56                           ;        software without specific prior written permission.
    57                           ; 
    58                           ; THIS SOFTWARE IS PROVIDED BY MICROCHIP "AS IS" AND ANY EXPRESS OR IMPLIED WARRANTIES,
    59                           ; INCLUDING, BUT NOT LIMITED TO, THE IMPLIED WARRANTIES OF MERCHANTABILITY AND FITNESS F
      +                          OR
    60                           ; PURPOSE ARE DISCLAIMED.  IN NO EVENT SHALL MICROCHIP BE LIABLE FOR ANY DIRECT, INDIREC
      +                          T,
    61                           ; INCIDENTAL, SPECIAL, EXEMPLARY, OR CONSEQUENTIAL DAMAGES (INCLUDING BUT NOT LIMITED TO
    62                           ; PROCUREMENT OF SUBSTITUTE GOODS OR SERVICES; LOSS OF USE, DATA OR PROFITS; OR BUSINESS
    63                           ; INTERRUPTION) HOWSOEVER CAUSED AND ON ANY THEORY OF LIABILITY, WHETHER IN CONTRACT, ST
      +                          RICT
    64                           ; LIABILITY, OR TORT (INCLUDING NEGLIGENCE OR OTHERWISE) ARISING IN ANY WAY OUT OF THE U
      +                          SE OF
    65                           ; THIS SOFTWARE, EVEN IF ADVISED OF THE POSSIBILITY OF SUCH DAMAGE.
    66                           ; 
    67                           ; 
    68                           ; Code-generator required, PIC16F887 Definitions
    69                           ; 
    70                           ; SFR Addresses
    71  0000                     	;# 
    72  0001                     	;# 
    73  0002                     	;# 
    74  0003                     	;# 
    75  0004                     	;# 
    76  0005                     	;# 
    77  0006                     	;# 
    78  0007                     	;# 
    79  0008                     	;# 
    80  0009                     	;# 
    81  000A                     	;# 
    82  000B                     	;# 
    83  000C                     	;# 
    84  000D                     	;# 
    85  000E                     	;# 
    86  000E                     	;# 
    87  000F                     	;# 
    88  0010                     	;# 
    89  0011                     	;# 
    90  0012                     	;# 
    91  0013                     	;# 
    92  0014                     	;# 
    93  0015                     	;# 
    94  0015                     	;# 
    95  0016                     	;# 
    96  0017                     	;# 
    97  0018                     	;# 
    98  0019                     	;# 
    99  001A                     	;# 
   100  001B                     	;# 
   101  001B                     	;# 
   102  001C                     	;# 
   103  001D                     	;# 
   104  001E                     	;# 
   105  001F                     	;# 
   106  0081                     	;# 
   107  0085                     	;# 
   108  0086                     	;# 
   109  0087                     	;# 
   110  0088                     	;# 
   111  0089                     	;# 
   112  008C                     	;# 
   113  008D                     	;# 
   114  008E                     	;# 
   115  008F                     	;# 
   116  0090                     	;# 
   117  0091                     	;# 
   118  0092                     	;# 
   119  0093                     	;# 
   120  0093                     	;# 
   121  0093                     	;# 
   122  0094                     	;# 
   123  0095                     	;# 
   124  0096                     	;# 
   125  0097                     	;# 
   126  0098                     	;# 
   127  0099                     	;# 
   128  009A                     	;# 
   129  009B                     	;# 
   130  009C                     	;# 
   131  009D                     	;# 
   132  009E                     	;# 
   133  009F                     	;# 
   134  0105                     	;# 
   135  0107                     	;# 
   136  0108                     	;# 
   137  0109                     	;# 
   138  010C                     	;# 
   139  010C                     	;# 
   140  010D                     	;# 
   141  010E                     	;# 
   142  010F                     	;# 
   143  0185                     	;# 
   144  0187                     	;# 
   145  0188                     	;# 
   146  0189                     	;# 
   147  018C                     	;# 
   148  018D                     	;# 
   149  0000                     	;# 
   150  0001                     	;# 
   151  0002                     	;# 
   152  0003                     	;# 
   153  0004                     	;# 
   154  0005                     	;# 
   155  0006                     	;# 
   156  0007                     	;# 
   157  0008                     	;# 
   158  0009                     	;# 
   159  000A                     	;# 
   160  000B                     	;# 
   161  000C                     	;# 
   162  000D                     	;# 
   163  000E                     	;# 
   164  000E                     	;# 
   165  000F                     	;# 
   166  0010                     	;# 
   167  0011                     	;# 
   168  0012                     	;# 
   169  0013                     	;# 
   170  0014                     	;# 
   171  0015                     	;# 
   172  0015                     	;# 
   173  0016                     	;# 
   174  0017                     	;# 
   175  0018                     	;# 
   176  0019                     	;# 
   177  001A                     	;# 
   178  001B                     	;# 
   179  001B                     	;# 
   180  001C                     	;# 
   181  001D                     	;# 
   182  001E                     	;# 
   183  001F                     	;# 
   184  0081                     	;# 
   185  0085                     	;# 
   186  0086                     	;# 
   187  0087                     	;# 
   188  0088                     	;# 
   189  0089                     	;# 
   190  008C                     	;# 
   191  008D                     	;# 
   192  008E                     	;# 
   193  008F                     	;# 
   194  0090                     	;# 
   195  0091                     	;# 
   196  0092                     	;# 
   197  0093                     	;# 
   198  0093                     	;# 
   199  0093                     	;# 
   200  0094                     	;# 
   201  0095                     	;# 
   202  0096                     	;# 
   203  0097                     	;# 
   204  0098                     	;# 
   205  0099                     	;# 
   206  009A                     	;# 
   207  009B                     	;# 
   208  009C                     	;# 
   209  009D                     	;# 
   210  009E                     	;# 
   211  009F                     	;# 
   212  0105                     	;# 
   213  0107                     	;# 
   214  0108                     	;# 
   215  0109                     	;# 
   216  010C                     	;# 
   217  010C                     	;# 
   218  010D                     	;# 
   219  010E                     	;# 
   220  010F                     	;# 
   221  0185                     	;# 
   222  0187                     	;# 
   223  0188                     	;# 
   224  0189                     	;# 
   225  018C                     	;# 
   226  018D                     	;# 
   227  0000                     	;# 
   228  0001                     	;# 
   229  0002                     	;# 
   230  0003                     	;# 
   231  0004                     	;# 
   232  0005                     	;# 
   233  0006                     	;# 
   234  0007                     	;# 
   235  0008                     	;# 
   236  0009                     	;# 
   237  000A                     	;# 
   238  000B                     	;# 
   239  000C                     	;# 
   240  000D                     	;# 
   241  000E                     	;# 
   242  000E                     	;# 
   243  000F                     	;# 
   244  0010                     	;# 
   245  0011                     	;# 
   246  0012                     	;# 
   247  0013                     	;# 
   248  0014                     	;# 
   249  0015                     	;# 
   250  0015                     	;# 
   251  0016                     	;# 
   252  0017                     	;# 
   253  0018                     	;# 
   254  0019                     	;# 
   255  001A                     	;# 
   256  001B                     	;# 
   257  001B                     	;# 
   258  001C                     	;# 
   259  001D                     	;# 
   260  001E                     	;# 
   261  001F                     	;# 
   262  0081                     	;# 
   263  0085                     	;# 
   264  0086                     	;# 
   265  0087                     	;# 
   266  0088                     	;# 
   267  0089                     	;# 
   268  008C                     	;# 
   269  008D                     	;# 
   270  008E                     	;# 
   271  008F                     	;# 
   272  0090                     	;# 
   273  0091                     	;# 
   274  0092                     	;# 
   275  0093                     	;# 
   276  0093                     	;# 
   277  0093                     	;# 
   278  0094                     	;# 
   279  0095                     	;# 
   280  0096                     	;# 
   281  0097                     	;# 
   282  0098                     	;# 
   283  0099                     	;# 
   284  009A                     	;# 
   285  009B                     	;# 
   286  009C                     	;# 
   287  009D                     	;# 
   288  009E                     	;# 
   289  009F                     	;# 
   290  0105                     	;# 
   291  0107                     	;# 
   292  0108                     	;# 
   293  0109                     	;# 
   294  010C                     	;# 
   295  010C                     	;# 
   296  010D                     	;# 
   297  010E                     	;# 
   298  010F                     	;# 
   299  0185                     	;# 
   300  0187                     	;# 
   301  0188                     	;# 
   302  0189                     	;# 
   303  018C                     	;# 
   304  018D                     	;# 
   305  0000                     	;# 
   306  0001                     	;# 
   307  0002                     	;# 
   308  0003                     	;# 
   309  0004                     	;# 
   310  0005                     	;# 
   311  0006                     	;# 
   312  0007                     	;# 
   313  0008                     	;# 
   314  0009                     	;# 
   315  000A                     	;# 
   316  000B                     	;# 
   317  000C                     	;# 
   318  000D                     	;# 
   319  000E                     	;# 
   320  000E                     	;# 
   321  000F                     	;# 
   322  0010                     	;# 
   323  0011                     	;# 
   324  0012                     	;# 
   325  0013                     	;# 
   326  0014                     	;# 
   327  0015                     	;# 
   328  0015                     	;# 
   329  0016                     	;# 
   330  0017                     	;# 
   331  0018                     	;# 
   332  0019                     	;# 
   333  001A                     	;# 
   334  001B                     	;# 
   335  001B                     	;# 
   336  001C                     	;# 
   337  001D                     	;# 
   338  001E                     	;# 
   339  001F                     	;# 
   340  0081                     	;# 
   341  0085                     	;# 
   342  0086                     	;# 
   343  0087                     	;# 
   344  0088                     	;# 
   345  0089                     	;# 
   346  008C                     	;# 
   347  008D                     	;# 
   348  008E                     	;# 
   349  008F                     	;# 
   350  0090                     	;# 
   351  0091                     	;# 
   352  0092                     	;# 
   353  0093                     	;# 
   354  0093                     	;# 
   355  0093                     	;# 
   356  0094                     	;# 
   357  0095                     	;# 
   358  0096                     	;# 
   359  0097                     	;# 
   360  0098                     	;# 
   361  0099                     	;# 
   362  009A                     	;# 
   363  009B                     	;# 
   364  009C                     	;# 
   365  009D                     	;# 
   366  009E                     	;# 
   367  009F                     	;# 
   368  0105                     	;# 
   369  0107                     	;# 
   370  0108                     	;# 
   371  0109                     	;# 
   372  010C                     	;# 
   373  010C                     	;# 
   374  010D                     	;# 
   375  010E                     	;# 
   376  010F                     	;# 
   377  0185                     	;# 
   378  0187                     	;# 
   379  0188                     	;# 
   380  0189                     	;# 
   381  018C                     	;# 
   382  018D                     	;# 
   383                           
   384                           	psect	strings
   385  0800                     __pstrings:	
   386  0800                     stringtab:	
   387  0800                     __stringtab:	
   388                           
   389                           ;	String table - string pointers are 1 byte each
   390  0800  1BFF               	btfsc	btemp+1,7
   391  0801  280A               	ljmp	stringcode
   392  0802  1383               	bcf	3,7
   393  0803  187F               	btfsc	btemp+1,0
   394  0804  1783               	bsf	3,7
   395  0805  0800               	movf	0,w
   396  0806  0A84               	incf	4,f
   397  0807  1903               	skipnz
   398  0808  0AFF               	incf	btemp+1,f
   399  0809  0008               	return
   400  080A                     stringcode:	
   401  080A                     stringdir:	
   402  080A  3008               	movlw	high stringdir
   403  080B  008A               	movwf	10
   404  080C  0804               	movf	4,w
   405  080D  0A84               	incf	4,f
   406  080E  0782               	addwf	2,f
   407  080F                     __stringbase:	
   408  080F  3400               	retlw	0
   409  0810                     __end_of__stringtab:	
   410  0810                     _dpowers:	
   411  0810  3401               	retlw	1
   412  0811  3400               	retlw	0
   413  0812  340A               	retlw	10
   414  0813  3400               	retlw	0
   415  0814  3464               	retlw	100
   416  0815  3400               	retlw	0
   417  0816  34E8               	retlw	232
   418  0817  3403               	retlw	3
   419  0818  3410               	retlw	16
   420  0819  3427               	retlw	39
   421  081A                     __end_of_dpowers:	
   422  0006                     _PORTBbits	set	6
   423  0013                     _SSPBUF	set	19
   424  0014                     _SSPCON	set	20
   425  0008                     _PORTD	set	8
   426  0006                     _PORTB	set	6
   427  0005                     _PORTA	set	5
   428  0063                     _SSPIF	set	99
   429  005E                     _PEIE	set	94
   430  005F                     _GIE	set	95
   431  0091                     _SSPCON2bits	set	145
   432  0087                     _TRISCbits	set	135
   433  0094                     _SSPSTAT	set	148
   434  0093                     _SSPADD	set	147
   435  0091                     _SSPCON2	set	145
   436  0088                     _TRISD	set	136
   437  0086                     _TRISB	set	134
   438  0085                     _TRISA	set	133
   439  0463                     _SSPIE	set	1123
   440  043C                     _TRISC4	set	1084
   441  043B                     _TRISC3	set	1083
   442  0189                     _ANSELH	set	393
   443  0188                     _ANSEL	set	392
   444  081A                     STR_2:	
   445  081A  3443               	retlw	67	;'C'
   446  081B  344F               	retlw	79	;'O'
   447  081C  3455               	retlw	85	;'U'
   448  081D  344E               	retlw	78	;'N'
   449  081E  3454               	retlw	84	;'T'
   450  081F  3400               	retlw	0
   451  0820                     STR_3:	
   452  0820  3453               	retlw	83	;'S'
   453  0821  344E               	retlw	78	;'N'
   454  0822  3453               	retlw	83	;'S'
   455  0823  3452               	retlw	82	;'R'
   456  0824  3400               	retlw	0
   457  0825                     STR_1:	
   458  0825  3441               	retlw	65	;'A'
   459  0826  3444               	retlw	68	;'D'
   460  0827  3443               	retlw	67	;'C'
   461  0828  3400               	retlw	0
   462  0829                     STR_6:	
   463  0829  3425               	retlw	37	;'%'
   464  082A  3464               	retlw	100	;'d'
   465  082B  3400               	retlw	0
   466  082C                     STR_4:	
   467  082C  3430               	retlw	48	;'0'
   468  082D  3430               	retlw	48	;'0'
   469  082E  3400               	retlw	0
   470  082D                     
   471                           ; #config settings
   472  0000                     
   473                           	psect	cinit
   474  07ED                     start_initialization:	
   475  07ED                     __initialization:	
   476                           
   477                           ; Clear objects allocated to BANK0
   478  07ED  1283               	bcf	3,5	;RP0=0, select bank0
   479  07EE  1303               	bcf	3,6	;RP1=0, select bank0
   480  07EF  01E8               	clrf	__pbssBANK0& (0+127)
   481  07F0  01E9               	clrf	(__pbssBANK0+1)& (0+127)
   482  07F1  01EA               	clrf	(__pbssBANK0+2)& (0+127)
   483  07F2  01EB               	clrf	(__pbssBANK0+3)& (0+127)
   484  07F3  01EC               	clrf	(__pbssBANK0+4)& (0+127)
   485  07F4  01ED               	clrf	(__pbssBANK0+5)& (0+127)
   486  07F5  01EE               	clrf	(__pbssBANK0+6)& (0+127)
   487                           
   488                           ; Clear objects allocated to BANK1
   489  07F6  1683               	bsf	3,5	;RP0=1, select bank1
   490  07F7  1303               	bcf	3,6	;RP1=0, select bank1
   491  07F8  01A0               	clrf	__pbssBANK1& (0+127)
   492  07F9  01A1               	clrf	(__pbssBANK1+1)& (0+127)
   493  07FA  01A2               	clrf	(__pbssBANK1+2)& (0+127)
   494  07FB  01A3               	clrf	(__pbssBANK1+3)& (0+127)
   495  07FC                     end_of_initialization:	
   496                           ;End of C runtime variable initialization code
   497                           
   498  07FC                     __end_of__initialization:	
   499  07FC  0183               	clrf	3
   500  07FD  120A  158A  2DE2   	ljmp	_main	;jump to C main() function
   501                           
   502                           	psect	bssBANK0
   503  0068                     __pbssBANK0:	
   504  0068                     _adc:	
   505  0068                     	ds	4
   506  006C                     _count:	
   507  006C                     	ds	1
   508  006D                     _decimaladc:	
   509  006D                     	ds	1
   510  006E                     _enteroadc:	
   511  006E                     	ds	1
   512                           
   513                           	psect	bssBANK1
   514  00A0                     __pbssBANK1:	
   515  00A0                     _decimalfloatadc:	
   516  00A0                     	ds	4
   517                           
   518                           	psect	cstackCOMMON
   519  0070                     __pcstackCOMMON:	
   520  0070                     ?_initLCD:	
   521  0070                     ?_lcd_clr:	
   522                           ; 1 bytes @ 0x0
   523                           
   524  0070                     ?_I2C_Master_Start:	
   525                           ; 1 bytes @ 0x0
   526                           
   527  0070                     ??_I2C_Master_Start:	
   528                           ; 1 bytes @ 0x0
   529                           
   530  0070                     ?_I2C_Master_Write:	
   531                           ; 1 bytes @ 0x0
   532                           
   533  0070                     ?_I2C_Master_Stop:	
   534                           ; 1 bytes @ 0x0
   535                           
   536  0070                     ??_I2C_Master_Stop:	
   537                           ; 1 bytes @ 0x0
   538                           
   539  0070                     ?_lcd_write_int:	
   540                           ; 1 bytes @ 0x0
   541                           
   542  0070                     ?_lcd_write_char:	
   543                           ; 1 bytes @ 0x0
   544                           
   545  0070                     ??_lcd_write_char:	
   546                           ; 1 bytes @ 0x0
   547                           
   548  0070                     ?_lcd_cmd:	
   549                           ; 1 bytes @ 0x0
   550                           
   551  0070                     ??_lcd_cmd:	
   552                           ; 1 bytes @ 0x0
   553                           
   554  0070                     ?_main:	
   555                           ; 1 bytes @ 0x0
   556                           
   557  0070                     ?_I2C_Master_Wait:	
   558                           ; 1 bytes @ 0x0
   559                           
   560  0070                     ??_I2C_Master_Wait:	
   561                           ; 1 bytes @ 0x0
   562                           
   563  0070                     ?_I2C_Master_Read:	
   564                           ; 1 bytes @ 0x0
   565                           
   566  0070                     ?__Umul8_16:	
   567                           ; 2 bytes @ 0x0
   568                           
   569  0070                     ?___lwdiv:	
   570                           ; 2 bytes @ 0x0
   571                           
   572  0070                     ?___lldiv:	
   573                           ; 2 bytes @ 0x0
   574                           
   575  0070                     ?___fltol:	
   576                           ; 4 bytes @ 0x0
   577                           
   578  0070                     ?___fladd:	
   579                           ; 4 bytes @ 0x0
   580                           
   581  0070                     __Umul8_16@multiplicand:	
   582                           ; 4 bytes @ 0x0
   583                           
   584  0070                     I2C_Master_Write@d:	
   585                           ; 1 bytes @ 0x0
   586                           
   587  0070                     I2C_Master_Read@a:	
   588                           ; 2 bytes @ 0x0
   589                           
   590  0070                     ___lwdiv@divisor:	
   591                           ; 2 bytes @ 0x0
   592                           
   593  0070                     ___lldiv@divisor:	
   594                           ; 2 bytes @ 0x0
   595                           
   596  0070                     ___fltol@f1:	
   597                           ; 4 bytes @ 0x0
   598                           
   599  0070                     ___fladd@b:	
   600                           ; 4 bytes @ 0x0
   601                           
   602                           
   603                           ; 4 bytes @ 0x0
   604  0070                     	ds	2
   605  0072                     ??_I2C_Master_Write:	
   606  0072                     ??_I2C_Master_Read:	
   607                           ; 1 bytes @ 0x2
   608                           
   609  0072                     ??__Umul8_16:	
   610                           ; 1 bytes @ 0x2
   611                           
   612  0072                     lcd_cmd@command:	
   613                           ; 1 bytes @ 0x2
   614                           
   615  0072                     lcd_write_char@var:	
   616                           ; 1 bytes @ 0x2
   617                           
   618  0072                     ___lwdiv@dividend:	
   619                           ; 1 bytes @ 0x2
   620                           
   621                           
   622                           ; 2 bytes @ 0x2
   623  0072                     	ds	1
   624  0073                     ??_initLCD:	
   625  0073                     ??_lcd_clr:	
   626                           ; 1 bytes @ 0x3
   627                           
   628  0073                     ?_lcd_set_cursor:	
   629                           ; 1 bytes @ 0x3
   630                           
   631  0073                     ?_lcd_write_string:	
   632                           ; 1 bytes @ 0x3
   633                           
   634  0073                     lcd_set_cursor@posy:	
   635                           ; 1 bytes @ 0x3
   636                           
   637  0073                     lcd_write_string@var:	
   638                           ; 1 bytes @ 0x3
   639                           
   640                           
   641                           ; 2 bytes @ 0x3
   642  0073                     	ds	1
   643  0074                     ??_lcd_set_cursor:	
   644  0074                     ??___fltol:	
   645                           ; 1 bytes @ 0x4
   646                           
   647  0074                     ??___lwdiv:	
   648                           ; 1 bytes @ 0x4
   649                           
   650  0074                     lcd_set_cursor@posx:	
   651                           ; 1 bytes @ 0x4
   652                           
   653  0074                     I2C_Master_Read@temp:	
   654                           ; 1 bytes @ 0x4
   655                           
   656  0074                     __Umul8_16@product:	
   657                           ; 2 bytes @ 0x4
   658                           
   659  0074                     ___lldiv@dividend:	
   660                           ; 2 bytes @ 0x4
   661                           
   662  0074                     ___fladd@a:	
   663                           ; 4 bytes @ 0x4
   664                           
   665                           
   666                           ; 4 bytes @ 0x4
   667  0074                     	ds	1
   668  0075                     ??_lcd_write_string:	
   669  0075                     ___lwdiv@quotient:	
   670                           ; 1 bytes @ 0x5
   671                           
   672                           
   673                           ; 2 bytes @ 0x5
   674  0075                     	ds	1
   675  0076                     ?___xxtofl:	
   676  0076                     __Umul8_16@word_mpld:	
   677                           ; 4 bytes @ 0x6
   678                           
   679  0076                     ___xxtofl@val:	
   680                           ; 2 bytes @ 0x6
   681                           
   682                           
   683                           ; 4 bytes @ 0x6
   684  0076                     	ds	1
   685  0077                     ___lwdiv@counter:	
   686                           
   687                           ; 1 bytes @ 0x7
   688  0077                     	ds	1
   689  0078                     ??___lldiv:	
   690  0078                     ?___lwmod:	
   691                           ; 1 bytes @ 0x8
   692                           
   693  0078                     ___fladd@signs:	
   694                           ; 2 bytes @ 0x8
   695                           
   696  0078                     __Umul8_16@multiplier:	
   697                           ; 1 bytes @ 0x8
   698                           
   699  0078                     lcd_write_string@i:	
   700                           ; 1 bytes @ 0x8
   701                           
   702  0078                     ___lwmod@divisor:	
   703                           ; 2 bytes @ 0x8
   704                           
   705                           
   706                           ; 2 bytes @ 0x8
   707  0078                     	ds	1
   708  0079                     ___fltol@sign1:	
   709  0079                     ___fladd@aexp:	
   710                           ; 1 bytes @ 0x9
   711                           
   712  0079                     ___lldiv@quotient:	
   713                           ; 1 bytes @ 0x9
   714                           
   715                           
   716                           ; 4 bytes @ 0x9
   717  0079                     	ds	1
   718  007A                     ??___xxtofl:	
   719  007A                     ___fltol@exp1:	
   720                           ; 1 bytes @ 0xA
   721                           
   722  007A                     ___fladd@bexp:	
   723                           ; 1 bytes @ 0xA
   724                           
   725  007A                     ___lwmod@dividend:	
   726                           ; 1 bytes @ 0xA
   727                           
   728                           
   729                           ; 2 bytes @ 0xA
   730  007A                     	ds	1
   731  007B                     ___fladd@grs:	
   732                           
   733                           ; 1 bytes @ 0xB
   734  007B                     	ds	1
   735  007C                     ??___lwmod:	
   736                           
   737                           ; 1 bytes @ 0xC
   738  007C                     	ds	1
   739  007D                     ___lldiv@counter:	
   740  007D                     ___lwmod@counter:	
   741                           ; 1 bytes @ 0xD
   742                           
   743                           
   744                           ; 1 bytes @ 0xD
   745  007D                     	ds	1
   746  007E                     ??___flsub:	
   747                           
   748                           	psect	cstackBANK0
   749  0020                     __pcstackBANK0:	
   750                           ; 1 bytes @ 0xE
   751                           
   752  0020                     ?_I2C_Master_Init:	
   753  0020                     ??___fladd:	
   754                           ; 1 bytes @ 0x0
   755                           
   756  0020                     ?_sprintf:	
   757                           ; 1 bytes @ 0x0
   758                           
   759  0020                     sprintf@f:	
   760                           ; 2 bytes @ 0x0
   761                           
   762  0020                     ___xxtofl@sign:	
   763                           ; 1 bytes @ 0x0
   764                           
   765  0020                     I2C_Master_Init@c:	
   766                           ; 1 bytes @ 0x0
   767                           
   768                           
   769                           ; 4 bytes @ 0x0
   770  0020                     	ds	1
   771  0021                     ___xxtofl@exp:	
   772                           
   773                           ; 1 bytes @ 0x1
   774  0021                     	ds	1
   775  0022                     ___xxtofl@arg:	
   776                           
   777                           ; 4 bytes @ 0x2
   778  0022                     	ds	1
   779  0023                     ??_sprintf:	
   780                           
   781                           ; 1 bytes @ 0x3
   782  0023                     	ds	1
   783  0024                     ??_I2C_Master_Init:	
   784                           
   785                           ; 1 bytes @ 0x4
   786  0024                     	ds	2
   787  0026                     sprintf@ap:	
   788                           
   789                           ; 1 bytes @ 0x6
   790  0026                     	ds	1
   791  0027                     sprintf@flag:	
   792                           
   793                           ; 1 bytes @ 0x7
   794  0027                     	ds	1
   795  0028                     ?___flsub:	
   796  0028                     sprintf@prec:	
   797                           ; 4 bytes @ 0x8
   798                           
   799  0028                     ___flsub@a:	
   800                           ; 1 bytes @ 0x8
   801                           
   802                           
   803                           ; 4 bytes @ 0x8
   804  0028                     	ds	1
   805  0029                     sprintf@val:	
   806                           
   807                           ; 2 bytes @ 0x9
   808  0029                     	ds	2
   809  002B                     sprintf@sp:	
   810                           
   811                           ; 1 bytes @ 0xB
   812  002B                     	ds	1
   813  002C                     sprintf@c:	
   814  002C                     ___flsub@b:	
   815                           ; 1 bytes @ 0xC
   816                           
   817                           
   818                           ; 4 bytes @ 0xC
   819  002C                     	ds	1
   820  002D                     ??_lcd_write_int:	
   821                           
   822                           ; 1 bytes @ 0xD
   823  002D                     	ds	3
   824  0030                     ?___flmul:	
   825  0030                     lcd_write_int@buffer:	
   826                           ; 4 bytes @ 0x10
   827                           
   828  0030                     ___flmul@b:	
   829                           ; 4 bytes @ 0x10
   830                           
   831                           
   832                           ; 4 bytes @ 0x10
   833  0030                     	ds	4
   834  0034                     lcd_write_int@numero:	
   835  0034                     ___flmul@a:	
   836                           ; 1 bytes @ 0x14
   837                           
   838                           
   839                           ; 4 bytes @ 0x14
   840  0034                     	ds	4
   841  0038                     ??___flmul:	
   842                           
   843                           ; 1 bytes @ 0x18
   844  0038                     	ds	5
   845  003D                     ___flmul@sign:	
   846                           
   847                           ; 1 bytes @ 0x1D
   848  003D                     	ds	1
   849  003E                     ___flmul@grs:	
   850                           
   851                           ; 4 bytes @ 0x1E
   852  003E                     	ds	4
   853  0042                     ___flmul@aexp:	
   854                           
   855                           ; 1 bytes @ 0x22
   856  0042                     	ds	1
   857  0043                     ___flmul@bexp:	
   858                           
   859                           ; 1 bytes @ 0x23
   860  0043                     	ds	1
   861  0044                     ___flmul@prod:	
   862                           
   863                           ; 4 bytes @ 0x24
   864  0044                     	ds	4
   865  0048                     ___flmul@temp:	
   866                           
   867                           ; 2 bytes @ 0x28
   868  0048                     	ds	2
   869  004A                     ?___fldiv:	
   870  004A                     ___fldiv@a:	
   871                           ; 4 bytes @ 0x2A
   872                           
   873                           
   874                           ; 4 bytes @ 0x2A
   875  004A                     	ds	4
   876  004E                     ___fldiv@b:	
   877                           
   878                           ; 4 bytes @ 0x2E
   879  004E                     	ds	4
   880  0052                     ??___fldiv:	
   881                           
   882                           ; 1 bytes @ 0x32
   883  0052                     	ds	5
   884  0057                     ___fldiv@rem:	
   885                           
   886                           ; 4 bytes @ 0x37
   887  0057                     	ds	4
   888  005B                     ___fldiv@sign:	
   889                           
   890                           ; 1 bytes @ 0x3B
   891  005B                     	ds	1
   892  005C                     ___fldiv@new_exp:	
   893                           
   894                           ; 2 bytes @ 0x3C
   895  005C                     	ds	2
   896  005E                     ___fldiv@grs:	
   897                           
   898                           ; 4 bytes @ 0x3E
   899  005E                     	ds	4
   900  0062                     ___fldiv@bexp:	
   901                           
   902                           ; 1 bytes @ 0x42
   903  0062                     	ds	1
   904  0063                     ___fldiv@aexp:	
   905                           
   906                           ; 1 bytes @ 0x43
   907  0063                     	ds	1
   908  0064                     ??_main:	
   909                           
   910                           ; 1 bytes @ 0x44
   911  0064                     	ds	4
   912                           
   913                           	psect	maintext
   914  0DE2                     __pmaintext:	
   915 ;;
   916 ;;Main: autosize = 0, tempsize = 4, incstack = 0, save=0
   917 ;;
   918 ;; *************** function _main *****************
   919 ;; Defined at:
   920 ;;		line 49 in file "I2C_Master.c"
   921 ;; Parameters:    Size  Location     Type
   922 ;;		None
   923 ;; Auto vars:     Size  Location     Type
   924 ;;		None
   925 ;; Return value:  Size  Location     Type
   926 ;;                  1    wreg      void 
   927 ;; Registers used:
   928 ;;		wreg, fsr0l, fsr0h, status,2, status,0, btemp+1, pclath, cstack
   929 ;; Tracked objects:
   930 ;;		On entry : B00/0
   931 ;;		On exit  : 0/0
   932 ;;		Unchanged: 0/0
   933 ;; Data sizes:     COMMON   BANK0   BANK1   BANK3   BANK2
   934 ;;      Params:         0       0       0       0       0
   935 ;;      Locals:         0       0       0       0       0
   936 ;;      Temps:          0       4       0       0       0
   937 ;;      Totals:         0       4       0       0       0
   938 ;;Total ram usage:        4 bytes
   939 ;; Hardware stack levels required when called:    3
   940 ;; This function calls:
   941 ;;		_I2C_Master_Init
   942 ;;		_I2C_Master_Read
   943 ;;		_I2C_Master_Start
   944 ;;		_I2C_Master_Stop
   945 ;;		_I2C_Master_Write
   946 ;;		___fldiv
   947 ;;		___flmul
   948 ;;		___flsub
   949 ;;		___fltol
   950 ;;		___xxtofl
   951 ;;		_initLCD
   952 ;;		_lcd_clr
   953 ;;		_lcd_set_cursor
   954 ;;		_lcd_write_char
   955 ;;		_lcd_write_int
   956 ;;		_lcd_write_string
   957 ;; This function is called by:
   958 ;;		Startup code after reset
   959 ;; This function uses a non-reentrant model
   960 ;;
   961                           
   962                           
   963                           ;psect for function _main
   964  0DE2                     _main:	
   965  0DE2                     l2519:	
   966                           ;incstack = 0
   967                           ; Regs used in _main: [wreg-fsr0h+status,2+status,0+btemp+1+pclath+cstack]
   968                           
   969                           
   970                           ;I2C_Master.c: 51:     ANSEL = 0;
   971  0DE2  1683               	bsf	3,5	;RP0=1, select bank3
   972  0DE3  1703               	bsf	3,6	;RP1=1, select bank3
   973  0DE4  0188               	clrf	8	;volatile
   974                           
   975                           ;I2C_Master.c: 52:     ANSELH = 0;
   976  0DE5  0189               	clrf	9	;volatile
   977                           
   978                           ;I2C_Master.c: 53:     TRISA = 0;
   979  0DE6  1683               	bsf	3,5	;RP0=1, select bank1
   980  0DE7  1303               	bcf	3,6	;RP1=0, select bank1
   981  0DE8  0185               	clrf	5	;volatile
   982                           
   983                           ;I2C_Master.c: 54:     TRISB = 0;
   984  0DE9  0186               	clrf	6	;volatile
   985                           
   986                           ;I2C_Master.c: 55:     TRISD = 0;
   987  0DEA  0188               	clrf	8	;volatile
   988                           
   989                           ;I2C_Master.c: 56:     PORTA = 0;
   990  0DEB  1283               	bcf	3,5	;RP0=0, select bank0
   991  0DEC  1303               	bcf	3,6	;RP1=0, select bank0
   992  0DED  0185               	clrf	5	;volatile
   993                           
   994                           ;I2C_Master.c: 57:     PORTB = 0;
   995  0DEE  0186               	clrf	6	;volatile
   996                           
   997                           ;I2C_Master.c: 58:     PORTD = 0;
   998  0DEF  0188               	clrf	8	;volatile
   999  0DF0                     l2521:	
  1000                           
  1001                           ;I2C_Master.c: 59:     initLCD();
  1002  0DF0  120A  158A  230F  120A  158A  	fcall	_initLCD
  1003  0DF5                     l2523:	
  1004                           
  1005                           ;I2C_Master.c: 60:     I2C_Master_Init(100000);
  1006  0DF5  3000               	movlw	0
  1007  0DF6  1283               	bcf	3,5	;RP0=0, select bank0
  1008  0DF7  1303               	bcf	3,6	;RP1=0, select bank0
  1009  0DF8  00A3               	movwf	I2C_Master_Init@c+3
  1010  0DF9  3001               	movlw	1
  1011  0DFA  00A2               	movwf	I2C_Master_Init@c+2
  1012  0DFB  3086               	movlw	134
  1013  0DFC  00A1               	movwf	I2C_Master_Init@c+1
  1014  0DFD  30A0               	movlw	160
  1015  0DFE  00A0               	movwf	I2C_Master_Init@c
  1016  0DFF  120A  158A  2217  120A  158A  	fcall	_I2C_Master_Init
  1017  0E04                     l2525:	
  1018                           
  1019                           ;I2C_Master.c: 61:     lcd_clr();
  1020  0E04  120A  158A  2121  120A  158A  	fcall	_lcd_clr
  1021  0E09                     l2527:	
  1022                           
  1023                           ;I2C_Master.c: 62:     lcd_set_cursor(2,1);
  1024  0E09  01F3               	clrf	lcd_set_cursor@posy
  1025  0E0A  0AF3               	incf	lcd_set_cursor@posy,f
  1026  0E0B  3002               	movlw	2
  1027  0E0C  120A  158A  2165  120A  158A  	fcall	_lcd_set_cursor
  1028  0E11                     l2529:	
  1029                           
  1030                           ;I2C_Master.c: 63:     lcd_write_string ("ADC");
  1031  0E11  3016               	movlw	(low ((STR_1-__stringbase)| (0+32768)))& (0+255)
  1032  0E12  00F3               	movwf	lcd_write_string@var
  1033  0E13  3080               	movlw	128
  1034  0E14  00F4               	movwf	lcd_write_string@var+1
  1035  0E15  120A  158A  2289  120A  158A  	fcall	_lcd_write_string
  1036  0E1A                     l2531:	
  1037                           
  1038                           ;I2C_Master.c: 64:     lcd_set_cursor(7,1);
  1039  0E1A  01F3               	clrf	lcd_set_cursor@posy
  1040  0E1B  0AF3               	incf	lcd_set_cursor@posy,f
  1041  0E1C  3007               	movlw	7
  1042  0E1D  120A  158A  2165  120A  158A  	fcall	_lcd_set_cursor
  1043  0E22                     l2533:	
  1044                           
  1045                           ;I2C_Master.c: 65:     lcd_write_string ("COUNT");
  1046  0E22  300B               	movlw	(low ((STR_2-__stringbase)| (0+32768)))& (0+255)
  1047  0E23  00F3               	movwf	lcd_write_string@var
  1048  0E24  3080               	movlw	128
  1049  0E25  00F4               	movwf	lcd_write_string@var+1
  1050  0E26  120A  158A  2289  120A  158A  	fcall	_lcd_write_string
  1051  0E2B                     l2535:	
  1052                           
  1053                           ;I2C_Master.c: 66:     lcd_set_cursor(13,1);
  1054  0E2B  01F3               	clrf	lcd_set_cursor@posy
  1055  0E2C  0AF3               	incf	lcd_set_cursor@posy,f
  1056  0E2D  300D               	movlw	13
  1057  0E2E  120A  158A  2165  120A  158A  	fcall	_lcd_set_cursor
  1058  0E33                     l2537:	
  1059                           
  1060                           ;I2C_Master.c: 67:     lcd_write_string ("SNSR");
  1061  0E33  3011               	movlw	(low ((STR_3-__stringbase)| (0+32768)))& (0+255)
  1062  0E34  00F3               	movwf	lcd_write_string@var
  1063  0E35  3080               	movlw	128
  1064  0E36  00F4               	movwf	lcd_write_string@var+1
  1065  0E37  120A  158A  2289  120A  158A  	fcall	_lcd_write_string
  1066  0E3C                     l2539:	
  1067                           
  1068                           ;I2C_Master.c: 71:         I2C_Master_Start();
  1069  0E3C  120A  158A  2128  120A  158A  	fcall	_I2C_Master_Start
  1070  0E41                     l2541:	
  1071                           
  1072                           ;I2C_Master.c: 72:         I2C_Master_Write(0x51);
  1073  0E41  3051               	movlw	81
  1074  0E42  00F0               	movwf	I2C_Master_Write@d
  1075  0E43  3000               	movlw	0
  1076  0E44  00F1               	movwf	I2C_Master_Write@d+1
  1077  0E45  120A  158A  213A  120A  158A  	fcall	_I2C_Master_Write
  1078  0E4A                     l2543:	
  1079                           
  1080                           ;I2C_Master.c: 73:         adc = I2C_Master_Read(0);
  1081  0E4A  3000               	movlw	0
  1082  0E4B  00F0               	movwf	I2C_Master_Read@a
  1083  0E4C  00F1               	movwf	I2C_Master_Read@a+1
  1084  0E4D  120A  158A  21E9  120A  158A  	fcall	_I2C_Master_Read
  1085  0E52  0870               	movf	?_I2C_Master_Read,w
  1086  0E53  1283               	bcf	3,5	;RP0=0, select bank0
  1087  0E54  1303               	bcf	3,6	;RP1=0, select bank0
  1088  0E55  00E4               	movwf	??_main
  1089  0E56  0871               	movf	?_I2C_Master_Read+1,w
  1090  0E57  00E5               	movwf	??_main+1
  1091  0E58  01E6               	clrf	??_main+2
  1092  0E59  01E7               	clrf	??_main+3
  1093  0E5A  0867               	movf	??_main+3,w
  1094  0E5B  00F9               	movwf	___xxtofl@val+3
  1095  0E5C  0866               	movf	??_main+2,w
  1096  0E5D  00F8               	movwf	___xxtofl@val+2
  1097  0E5E  0865               	movf	??_main+1,w
  1098  0E5F  00F7               	movwf	___xxtofl@val+1
  1099  0E60  0864               	movf	??_main,w
  1100  0E61  00F6               	movwf	___xxtofl@val
  1101  0E62  3000               	movlw	0
  1102  0E63  120A  158A  243E  120A  158A  	fcall	___xxtofl
  1103  0E68  0879               	movf	?___xxtofl+3,w
  1104  0E69  1283               	bcf	3,5	;RP0=0, select bank0
  1105  0E6A  1303               	bcf	3,6	;RP1=0, select bank0
  1106  0E6B  00EB               	movwf	_adc+3
  1107  0E6C  0878               	movf	?___xxtofl+2,w
  1108  0E6D  00EA               	movwf	_adc+2
  1109  0E6E  0877               	movf	?___xxtofl+1,w
  1110  0E6F  00E9               	movwf	_adc+1
  1111  0E70  0876               	movf	?___xxtofl,w
  1112  0E71  00E8               	movwf	_adc
  1113  0E72                     l2545:	
  1114                           
  1115                           ;I2C_Master.c: 74:         I2C_Master_Stop();
  1116  0E72  120A  158A  2131  120A  158A  	fcall	_I2C_Master_Stop
  1117  0E77                     l2547:	
  1118                           
  1119                           ;I2C_Master.c: 75:         _delay((unsigned long)((10)*(4000000/4000.0)));
  1120  0E77  300D               	movlw	13
  1121  0E78  1283               	bcf	3,5	;RP0=0, select bank0
  1122  0E79  1303               	bcf	3,6	;RP1=0, select bank0
  1123  0E7A  00E5               	movwf	??_main+1
  1124  0E7B  30FB               	movlw	251
  1125  0E7C  00E4               	movwf	??_main
  1126  0E7D                     u3597:	
  1127  0E7D  0BE4               	decfsz	??_main,f
  1128  0E7E  2E7D               	goto	u3597
  1129  0E7F  0BE5               	decfsz	??_main+1,f
  1130  0E80  2E7D               	goto	u3597
  1131  0E81                     l2549:	
  1132                           
  1133                           ;I2C_Master.c: 77:         I2C_Master_Start();
  1134  0E81  120A  158A  2128  120A  158A  	fcall	_I2C_Master_Start
  1135  0E86                     l2551:	
  1136                           
  1137                           ;I2C_Master.c: 78:         I2C_Master_Write(0x61);
  1138  0E86  3061               	movlw	97
  1139  0E87  00F0               	movwf	I2C_Master_Write@d
  1140  0E88  3000               	movlw	0
  1141  0E89  00F1               	movwf	I2C_Master_Write@d+1
  1142  0E8A  120A  158A  213A  120A  158A  	fcall	_I2C_Master_Write
  1143  0E8F                     l2553:	
  1144                           
  1145                           ;I2C_Master.c: 79:         count = I2C_Master_Read(0);
  1146  0E8F  3000               	movlw	0
  1147  0E90  00F0               	movwf	I2C_Master_Read@a
  1148  0E91  00F1               	movwf	I2C_Master_Read@a+1
  1149  0E92  120A  158A  21E9  120A  158A  	fcall	_I2C_Master_Read
  1150  0E97  0870               	movf	?_I2C_Master_Read,w
  1151  0E98  1283               	bcf	3,5	;RP0=0, select bank0
  1152  0E99  1303               	bcf	3,6	;RP1=0, select bank0
  1153  0E9A  00E4               	movwf	??_main
  1154  0E9B  0864               	movf	??_main,w
  1155  0E9C  00EC               	movwf	_count
  1156  0E9D                     l2555:	
  1157                           
  1158                           ;I2C_Master.c: 80:         I2C_Master_Stop();
  1159  0E9D  120A  158A  2131  120A  158A  	fcall	_I2C_Master_Stop
  1160  0EA2                     l2557:	
  1161                           
  1162                           ;I2C_Master.c: 81:         _delay((unsigned long)((10)*(4000000/4000.0)));
  1163  0EA2  300D               	movlw	13
  1164  0EA3  1283               	bcf	3,5	;RP0=0, select bank0
  1165  0EA4  1303               	bcf	3,6	;RP1=0, select bank0
  1166  0EA5  00E5               	movwf	??_main+1
  1167  0EA6  30FB               	movlw	251
  1168  0EA7  00E4               	movwf	??_main
  1169  0EA8                     u3607:	
  1170  0EA8  0BE4               	decfsz	??_main,f
  1171  0EA9  2EA8               	goto	u3607
  1172  0EAA  0BE5               	decfsz	??_main+1,f
  1173  0EAB  2EA8               	goto	u3607
  1174  0EAC                     l2559:	
  1175                           
  1176                           ;I2C_Master.c: 83:         adc = adc * 5/255;
  1177  0EAC  3043               	movlw	67
  1178  0EAD  1283               	bcf	3,5	;RP0=0, select bank0
  1179  0EAE  1303               	bcf	3,6	;RP1=0, select bank0
  1180  0EAF  00CD               	movwf	___fldiv@a+3
  1181  0EB0  307F               	movlw	127
  1182  0EB1  00CC               	movwf	___fldiv@a+2
  1183  0EB2  3000               	movlw	0
  1184  0EB3  00CB               	movwf	___fldiv@a+1
  1185  0EB4  3000               	movlw	0
  1186  0EB5  00CA               	movwf	___fldiv@a
  1187  0EB6  3040               	movlw	64
  1188  0EB7  00B3               	movwf	___flmul@b+3
  1189  0EB8  30A0               	movlw	160
  1190  0EB9  00B2               	movwf	___flmul@b+2
  1191  0EBA  3000               	movlw	0
  1192  0EBB  00B1               	movwf	___flmul@b+1
  1193  0EBC  3000               	movlw	0
  1194  0EBD  00B0               	movwf	___flmul@b
  1195  0EBE  086B               	movf	_adc+3,w
  1196  0EBF  00B7               	movwf	___flmul@a+3
  1197  0EC0  086A               	movf	_adc+2,w
  1198  0EC1  00B6               	movwf	___flmul@a+2
  1199  0EC2  0869               	movf	_adc+1,w
  1200  0EC3  00B5               	movwf	___flmul@a+1
  1201  0EC4  0868               	movf	_adc,w
  1202  0EC5  00B4               	movwf	___flmul@a
  1203  0EC6  120A  118A  248C  120A  158A  	fcall	___flmul
  1204  0ECB  1283               	bcf	3,5	;RP0=0, select bank0
  1205  0ECC  1303               	bcf	3,6	;RP1=0, select bank0
  1206  0ECD  0833               	movf	?___flmul+3,w
  1207  0ECE  00D1               	movwf	___fldiv@b+3
  1208  0ECF  0832               	movf	?___flmul+2,w
  1209  0ED0  00D0               	movwf	___fldiv@b+2
  1210  0ED1  0831               	movf	?___flmul+1,w
  1211  0ED2  00CF               	movwf	___fldiv@b+1
  1212  0ED3  0830               	movf	?___flmul,w
  1213  0ED4  00CE               	movwf	___fldiv@b
  1214  0ED5  120A  118A  2017  120A  158A  	fcall	___fldiv
  1215  0EDA  1283               	bcf	3,5	;RP0=0, select bank0
  1216  0EDB  1303               	bcf	3,6	;RP1=0, select bank0
  1217  0EDC  084D               	movf	?___fldiv+3,w
  1218  0EDD  00EB               	movwf	_adc+3
  1219  0EDE  084C               	movf	?___fldiv+2,w
  1220  0EDF  00EA               	movwf	_adc+2
  1221  0EE0  084B               	movf	?___fldiv+1,w
  1222  0EE1  00E9               	movwf	_adc+1
  1223  0EE2  084A               	movf	?___fldiv,w
  1224  0EE3  00E8               	movwf	_adc
  1225  0EE4                     l2561:	
  1226                           
  1227                           ;I2C_Master.c: 84:         enteroadc = adc;
  1228  0EE4  086B               	movf	_adc+3,w
  1229  0EE5  00F3               	movwf	___fltol@f1+3
  1230  0EE6  086A               	movf	_adc+2,w
  1231  0EE7  00F2               	movwf	___fltol@f1+2
  1232  0EE8  0869               	movf	_adc+1,w
  1233  0EE9  00F1               	movwf	___fltol@f1+1
  1234  0EEA  0868               	movf	_adc,w
  1235  0EEB  00F0               	movwf	___fltol@f1
  1236  0EEC  120A  158A  23C4  120A  158A  	fcall	___fltol
  1237  0EF1  0870               	movf	?___fltol,w
  1238  0EF2  1283               	bcf	3,5	;RP0=0, select bank0
  1239  0EF3  1303               	bcf	3,6	;RP1=0, select bank0
  1240  0EF4  00E4               	movwf	??_main
  1241  0EF5  0864               	movf	??_main,w
  1242  0EF6  00EE               	movwf	_enteroadc
  1243  0EF7                     l2563:	
  1244                           
  1245                           ;I2C_Master.c: 85:         decimalfloatadc = (adc - enteroadc)*100;
  1246  0EF7  3042               	movlw	66
  1247  0EF8  00B3               	movwf	___flmul@b+3
  1248  0EF9  30C8               	movlw	200
  1249  0EFA  00B2               	movwf	___flmul@b+2
  1250  0EFB  3000               	movlw	0
  1251  0EFC  00B1               	movwf	___flmul@b+1
  1252  0EFD  3000               	movlw	0
  1253  0EFE  00B0               	movwf	___flmul@b
  1254  0EFF  086E               	movf	_enteroadc,w
  1255  0F00  00E4               	movwf	??_main
  1256  0F01  01E5               	clrf	??_main+1
  1257  0F02  01E6               	clrf	??_main+2
  1258  0F03  01E7               	clrf	??_main+3
  1259  0F04  0867               	movf	??_main+3,w
  1260  0F05  00F9               	movwf	___xxtofl@val+3
  1261  0F06  0866               	movf	??_main+2,w
  1262  0F07  00F8               	movwf	___xxtofl@val+2
  1263  0F08  0865               	movf	??_main+1,w
  1264  0F09  00F7               	movwf	___xxtofl@val+1
  1265  0F0A  0864               	movf	??_main,w
  1266  0F0B  00F6               	movwf	___xxtofl@val
  1267  0F0C  3001               	movlw	1
  1268  0F0D  120A  158A  243E  120A  158A  	fcall	___xxtofl
  1269  0F12  0879               	movf	?___xxtofl+3,w
  1270  0F13  1283               	bcf	3,5	;RP0=0, select bank0
  1271  0F14  1303               	bcf	3,6	;RP1=0, select bank0
  1272  0F15  00AB               	movwf	___flsub@a+3
  1273  0F16  0878               	movf	?___xxtofl+2,w
  1274  0F17  00AA               	movwf	___flsub@a+2
  1275  0F18  0877               	movf	?___xxtofl+1,w
  1276  0F19  00A9               	movwf	___flsub@a+1
  1277  0F1A  0876               	movf	?___xxtofl,w
  1278  0F1B  00A8               	movwf	___flsub@a
  1279  0F1C  086B               	movf	_adc+3,w
  1280  0F1D  00AF               	movwf	___flsub@b+3
  1281  0F1E  086A               	movf	_adc+2,w
  1282  0F1F  00AE               	movwf	___flsub@b+2
  1283  0F20  0869               	movf	_adc+1,w
  1284  0F21  00AD               	movwf	___flsub@b+1
  1285  0F22  0868               	movf	_adc,w
  1286  0F23  00AC               	movwf	___flsub@b
  1287  0F24  120A  158A  219E  120A  158A  	fcall	___flsub
  1288  0F29  1283               	bcf	3,5	;RP0=0, select bank0
  1289  0F2A  1303               	bcf	3,6	;RP1=0, select bank0
  1290  0F2B  082B               	movf	?___flsub+3,w
  1291  0F2C  00B7               	movwf	___flmul@a+3
  1292  0F2D  082A               	movf	?___flsub+2,w
  1293  0F2E  00B6               	movwf	___flmul@a+2
  1294  0F2F  0829               	movf	?___flsub+1,w
  1295  0F30  00B5               	movwf	___flmul@a+1
  1296  0F31  0828               	movf	?___flsub,w
  1297  0F32  00B4               	movwf	___flmul@a
  1298  0F33  120A  118A  248C  120A  158A  	fcall	___flmul
  1299  0F38  1283               	bcf	3,5	;RP0=0, select bank0
  1300  0F39  1303               	bcf	3,6	;RP1=0, select bank0
  1301  0F3A  0833               	movf	?___flmul+3,w
  1302  0F3B  1683               	bsf	3,5	;RP0=1, select bank1
  1303  0F3C  1303               	bcf	3,6	;RP1=0, select bank1
  1304  0F3D  00A3               	movwf	(_decimalfloatadc+3)^(0+128)
  1305  0F3E  1283               	bcf	3,5	;RP0=0, select bank0
  1306  0F3F  1303               	bcf	3,6	;RP1=0, select bank0
  1307  0F40  0832               	movf	?___flmul+2,w
  1308  0F41  1683               	bsf	3,5	;RP0=1, select bank1
  1309  0F42  1303               	bcf	3,6	;RP1=0, select bank1
  1310  0F43  00A2               	movwf	(_decimalfloatadc+2)^(0+128)
  1311  0F44  1283               	bcf	3,5	;RP0=0, select bank0
  1312  0F45  1303               	bcf	3,6	;RP1=0, select bank0
  1313  0F46  0831               	movf	?___flmul+1,w
  1314  0F47  1683               	bsf	3,5	;RP0=1, select bank1
  1315  0F48  1303               	bcf	3,6	;RP1=0, select bank1
  1316  0F49  00A1               	movwf	(_decimalfloatadc+1)^(0+128)
  1317  0F4A  1283               	bcf	3,5	;RP0=0, select bank0
  1318  0F4B  1303               	bcf	3,6	;RP1=0, select bank0
  1319  0F4C  0830               	movf	?___flmul,w
  1320  0F4D  1683               	bsf	3,5	;RP0=1, select bank1
  1321  0F4E  1303               	bcf	3,6	;RP1=0, select bank1
  1322  0F4F  00A0               	movwf	_decimalfloatadc^(0+128)
  1323  0F50                     l2565:	
  1324                           
  1325                           ;I2C_Master.c: 86:         decimaladc = decimalfloatadc;
  1326  0F50  0823               	movf	(_decimalfloatadc+3)^(0+128),w
  1327  0F51  00F3               	movwf	___fltol@f1+3
  1328  0F52  0822               	movf	(_decimalfloatadc+2)^(0+128),w
  1329  0F53  00F2               	movwf	___fltol@f1+2
  1330  0F54  0821               	movf	(_decimalfloatadc+1)^(0+128),w
  1331  0F55  00F1               	movwf	___fltol@f1+1
  1332  0F56  0820               	movf	_decimalfloatadc^(0+128),w
  1333  0F57  00F0               	movwf	___fltol@f1
  1334  0F58  120A  158A  23C4  120A  158A  	fcall	___fltol
  1335  0F5D  0870               	movf	?___fltol,w
  1336  0F5E  1283               	bcf	3,5	;RP0=0, select bank0
  1337  0F5F  1303               	bcf	3,6	;RP1=0, select bank0
  1338  0F60  00E4               	movwf	??_main
  1339  0F61  0864               	movf	??_main,w
  1340  0F62  00ED               	movwf	_decimaladc
  1341  0F63                     l2567:	
  1342                           
  1343                           ;I2C_Master.c: 88:         lcd_set_cursor(1,2);
  1344  0F63  3002               	movlw	2
  1345  0F64  00E4               	movwf	??_main
  1346  0F65  0864               	movf	??_main,w
  1347  0F66  00F3               	movwf	lcd_set_cursor@posy
  1348  0F67  3001               	movlw	1
  1349  0F68  120A  158A  2165  120A  158A  	fcall	_lcd_set_cursor
  1350  0F6D                     l2569:	
  1351                           
  1352                           ;I2C_Master.c: 89:         lcd_write_int(enteroadc);
  1353  0F6D  1283               	bcf	3,5	;RP0=0, select bank0
  1354  0F6E  1303               	bcf	3,6	;RP1=0, select bank0
  1355  0F6F  086E               	movf	_enteroadc,w
  1356  0F70  120A  158A  2180  120A  158A  	fcall	_lcd_write_int
  1357  0F75                     l2571:	
  1358                           
  1359                           ;I2C_Master.c: 90:         lcd_write_char('.');
  1360  0F75  302E               	movlw	46
  1361  0F76  120A  118A  2003  120A  158A  	fcall	_lcd_write_char
  1362  0F7B                     l2573:	
  1363                           
  1364                           ;I2C_Master.c: 91:         if (decimaladc >= 10){
  1365  0F7B  300A               	movlw	10
  1366  0F7C  1283               	bcf	3,5	;RP0=0, select bank0
  1367  0F7D  1303               	bcf	3,6	;RP1=0, select bank0
  1368  0F7E  026D               	subwf	_decimaladc,w
  1369  0F7F  1C03               	skipc
  1370  0F80  2F82               	goto	u3551
  1371  0F81  2F83               	goto	u3550
  1372  0F82                     u3551:	
  1373  0F82  2F8A               	goto	l2577
  1374  0F83                     u3550:	
  1375  0F83                     l2575:	
  1376                           
  1377                           ;I2C_Master.c: 92:             lcd_write_int(decimaladc);
  1378  0F83  086D               	movf	_decimaladc,w
  1379  0F84  120A  158A  2180  120A  158A  	fcall	_lcd_write_int
  1380                           
  1381                           ;I2C_Master.c: 93:         }else{
  1382  0F89  2F98               	goto	l2581
  1383  0F8A                     l2577:	
  1384                           
  1385                           ;I2C_Master.c: 94:             lcd_write_char('0');
  1386  0F8A  3030               	movlw	48
  1387  0F8B  120A  118A  2003  120A  158A  	fcall	_lcd_write_char
  1388  0F90                     l2579:	
  1389                           
  1390                           ;I2C_Master.c: 95:             lcd_write_int(decimaladc);
  1391  0F90  1283               	bcf	3,5	;RP0=0, select bank0
  1392  0F91  1303               	bcf	3,6	;RP1=0, select bank0
  1393  0F92  086D               	movf	_decimaladc,w
  1394  0F93  120A  158A  2180  120A  158A  	fcall	_lcd_write_int
  1395  0F98                     l2581:	
  1396                           
  1397                           ;I2C_Master.c: 97:         lcd_write_char('V');
  1398  0F98  3056               	movlw	86
  1399  0F99  120A  118A  2003  120A  158A  	fcall	_lcd_write_char
  1400  0F9E                     l2583:	
  1401                           
  1402                           ;I2C_Master.c: 99:         if(count < 10){
  1403  0F9E  300A               	movlw	10
  1404  0F9F  1283               	bcf	3,5	;RP0=0, select bank0
  1405  0FA0  1303               	bcf	3,6	;RP1=0, select bank0
  1406  0FA1  026C               	subwf	_count,w
  1407  0FA2  1803               	skipnc
  1408  0FA3  2FA5               	goto	u3561
  1409  0FA4  2FA6               	goto	u3560
  1410  0FA5                     u3561:	
  1411  0FA5  2FC2               	goto	l2591
  1412  0FA6                     u3560:	
  1413  0FA6                     l2585:	
  1414                           
  1415                           ;I2C_Master.c: 100:             lcd_set_cursor(8,2);
  1416  0FA6  3002               	movlw	2
  1417  0FA7  00E4               	movwf	??_main
  1418  0FA8  0864               	movf	??_main,w
  1419  0FA9  00F3               	movwf	lcd_set_cursor@posy
  1420  0FAA  3008               	movlw	8
  1421  0FAB  120A  158A  2165  120A  158A  	fcall	_lcd_set_cursor
  1422  0FB0                     l2587:	
  1423                           
  1424                           ;I2C_Master.c: 101:             lcd_write_string("00");
  1425  0FB0  301D               	movlw	(low ((STR_4-__stringbase)| (0+32768)))& (0+255)
  1426  0FB1  00F3               	movwf	lcd_write_string@var
  1427  0FB2  3080               	movlw	128
  1428  0FB3  00F4               	movwf	lcd_write_string@var+1
  1429  0FB4  120A  158A  2289  120A  158A  	fcall	_lcd_write_string
  1430  0FB9                     l2589:	
  1431                           
  1432                           ;I2C_Master.c: 102:             lcd_write_int(count);
  1433  0FB9  1283               	bcf	3,5	;RP0=0, select bank0
  1434  0FBA  1303               	bcf	3,6	;RP1=0, select bank0
  1435  0FBB  086C               	movf	_count,w
  1436  0FBC  120A  158A  2180  120A  158A  	fcall	_lcd_write_int
  1437                           
  1438                           ;I2C_Master.c: 103:         } else if(count >= 10 && count < 100){
  1439  0FC1  2E3C               	goto	l2539
  1440  0FC2                     l2591:	
  1441  0FC2  300A               	movlw	10
  1442  0FC3  026C               	subwf	_count,w
  1443  0FC4  1C03               	skipc
  1444  0FC5  2FC7               	goto	u3571
  1445  0FC6  2FC8               	goto	u3570
  1446  0FC7                     u3571:	
  1447  0FC7  2FEA               	goto	l2601
  1448  0FC8                     u3570:	
  1449  0FC8                     l2593:	
  1450  0FC8  3064               	movlw	100
  1451  0FC9  026C               	subwf	_count,w
  1452  0FCA  1803               	skipnc
  1453  0FCB  2FCD               	goto	u3581
  1454  0FCC  2FCE               	goto	u3580
  1455  0FCD                     u3581:	
  1456  0FCD  2FEA               	goto	l2601
  1457  0FCE                     u3580:	
  1458  0FCE                     l2595:	
  1459                           
  1460                           ;I2C_Master.c: 104:             lcd_set_cursor(8,2);
  1461  0FCE  3002               	movlw	2
  1462  0FCF  00E4               	movwf	??_main
  1463  0FD0  0864               	movf	??_main,w
  1464  0FD1  00F3               	movwf	lcd_set_cursor@posy
  1465  0FD2  3008               	movlw	8
  1466  0FD3  120A  158A  2165  120A  158A  	fcall	_lcd_set_cursor
  1467  0FD8                     l2597:	
  1468                           
  1469                           ;I2C_Master.c: 105:             lcd_write_string("0");
  1470  0FD8  301E               	movlw	(low (((STR_4+1)-__stringbase)| (0+32768)))& (0+255)
  1471  0FD9  00F3               	movwf	lcd_write_string@var
  1472  0FDA  3080               	movlw	128
  1473  0FDB  00F4               	movwf	lcd_write_string@var+1
  1474  0FDC  120A  158A  2289  120A  158A  	fcall	_lcd_write_string
  1475  0FE1                     l2599:	
  1476                           
  1477                           ;I2C_Master.c: 106:             lcd_write_int(count);
  1478  0FE1  1283               	bcf	3,5	;RP0=0, select bank0
  1479  0FE2  1303               	bcf	3,6	;RP1=0, select bank0
  1480  0FE3  086C               	movf	_count,w
  1481  0FE4  120A  158A  2180  120A  158A  	fcall	_lcd_write_int
  1482                           
  1483                           ;I2C_Master.c: 107:         }else{
  1484  0FE9  2E3C               	goto	l2539
  1485  0FEA                     l2601:	
  1486                           
  1487                           ;I2C_Master.c: 108:             lcd_set_cursor(8,2);
  1488  0FEA  3002               	movlw	2
  1489  0FEB  00E4               	movwf	??_main
  1490  0FEC  0864               	movf	??_main,w
  1491  0FED  00F3               	movwf	lcd_set_cursor@posy
  1492  0FEE  3008               	movlw	8
  1493  0FEF  120A  158A  2165  120A  158A  	fcall	_lcd_set_cursor
  1494  0FF4                     l2603:	
  1495                           
  1496                           ;I2C_Master.c: 109:             lcd_write_int(count);
  1497  0FF4  1283               	bcf	3,5	;RP0=0, select bank0
  1498  0FF5  1303               	bcf	3,6	;RP1=0, select bank0
  1499  0FF6  086C               	movf	_count,w
  1500  0FF7  120A  158A  2180  120A  158A  	fcall	_lcd_write_int
  1501  0FFC  2E3C               	goto	l2539
  1502  0FFD  120A  118A  2800   	ljmp	start
  1503  1000                     __end_of_main:	
  1504                           
  1505                           	psect	text1
  1506  0980                     __ptext1:	
  1507 ;; *************** function _lcd_write_int *****************
  1508 ;; Defined at:
  1509 ;;		line 65 in file "LCD_Init.c"
  1510 ;; Parameters:    Size  Location     Type
  1511 ;;  numero          1    wreg     unsigned char 
  1512 ;; Auto vars:     Size  Location     Type
  1513 ;;  numero          1   20[BANK0 ] unsigned char 
  1514 ;;  buffer          4   16[BANK0 ] unsigned char [4]
  1515 ;; Return value:  Size  Location     Type
  1516 ;;                  1    wreg      void 
  1517 ;; Registers used:
  1518 ;;		wreg, fsr0l, fsr0h, status,2, status,0, btemp+1, pclath, cstack
  1519 ;; Tracked objects:
  1520 ;;		On entry : 0/0
  1521 ;;		On exit  : 0/0
  1522 ;;		Unchanged: 0/0
  1523 ;; Data sizes:     COMMON   BANK0   BANK1   BANK3   BANK2
  1524 ;;      Params:         0       0       0       0       0
  1525 ;;      Locals:         0       5       0       0       0
  1526 ;;      Temps:          0       3       0       0       0
  1527 ;;      Totals:         0       8       0       0       0
  1528 ;;Total ram usage:        8 bytes
  1529 ;; Hardware stack levels used:    1
  1530 ;; Hardware stack levels required when called:    2
  1531 ;; This function calls:
  1532 ;;		_lcd_write_string
  1533 ;;		_sprintf
  1534 ;; This function is called by:
  1535 ;;		_main
  1536 ;; This function uses a non-reentrant model
  1537 ;;
  1538                           
  1539                           
  1540                           ;psect for function _lcd_write_int
  1541  0980                     _lcd_write_int:	
  1542                           
  1543                           ;incstack = 0
  1544                           ; Regs used in _lcd_write_int: [wreg-fsr0h+status,2+status,0+btemp+1+pclath+cstack]
  1545                           ;lcd_write_int@numero stored from wreg
  1546  0980  1283               	bcf	3,5	;RP0=0, select bank0
  1547  0981  1303               	bcf	3,6	;RP1=0, select bank0
  1548  0982  00B4               	movwf	lcd_write_int@numero
  1549  0983                     l2149:	
  1550                           
  1551                           ;LCD_Init.c: 66:     char buffer [4];;LCD_Init.c: 67:     sprintf (buffer, "%d", numero)
      +                          ;
  1552  0983  301A               	movlw	(low ((STR_6-__stringbase)| (0+32768)))& (0+255)
  1553  0984  00AD               	movwf	??_lcd_write_int
  1554  0985  082D               	movf	??_lcd_write_int,w
  1555  0986  00A0               	movwf	sprintf@f
  1556  0987  0834               	movf	lcd_write_int@numero,w
  1557  0988  00AE               	movwf	??_lcd_write_int+1
  1558  0989  01AF               	clrf	??_lcd_write_int+2
  1559  098A  082E               	movf	??_lcd_write_int+1,w
  1560  098B  00A1               	movwf	?_sprintf+1
  1561  098C  082F               	movf	??_lcd_write_int+2,w
  1562  098D  00A2               	movwf	?_sprintf+2
  1563  098E  3030               	movlw	(low (lcd_write_int@buffer| 0))& (0+255)
  1564  098F  120A  158A  24FA  120A  158A  	fcall	_sprintf
  1565                           
  1566                           ;LCD_Init.c: 68:     lcd_write_string(buffer);
  1567  0994  3030               	movlw	(low (lcd_write_int@buffer| 0))& (0+255)
  1568  0995  00F3               	movwf	lcd_write_string@var
  1569  0996  3000               	movlw	0
  1570  0997  00F4               	movwf	lcd_write_string@var+1
  1571  0998  120A  158A  2289  120A  158A  	fcall	_lcd_write_string
  1572  099D                     l155:	
  1573  099D  0008               	return
  1574  099E                     __end_of_lcd_write_int:	
  1575                           
  1576                           	psect	text2
  1577  0CFA                     __ptext2:	
  1578 ;; *************** function _sprintf *****************
  1579 ;; Defined at:
  1580 ;;		line 505 in file "C:\Program Files (x86)\Microchip\xc8\v2.10\pic\sources\c90\common\doprnt.c"
  1581 ;; Parameters:    Size  Location     Type
  1582 ;;  sp              1    wreg     PTR unsigned char 
  1583 ;;		 -> lcd_write_int@buffer(4), 
  1584 ;;  f               1    0[BANK0 ] PTR const unsigned char 
  1585 ;;		 -> STR_6(3), 
  1586 ;; Auto vars:     Size  Location     Type
  1587 ;;  sp              1   11[BANK0 ] PTR unsigned char 
  1588 ;;		 -> lcd_write_int@buffer(4), 
  1589 ;;  tmpval          4    0        struct .
  1590 ;;  val             2    9[BANK0 ] unsigned int 
  1591 ;;  cp              2    0        PTR const unsigned char 
  1592 ;;  len             2    0        unsigned int 
  1593 ;;  c               1   12[BANK0 ] unsigned char 
  1594 ;;  prec            1    8[BANK0 ] char 
  1595 ;;  flag            1    7[BANK0 ] unsigned char 
  1596 ;;  ap              1    6[BANK0 ] PTR void [1]
  1597 ;;		 -> ?_sprintf(2), 
  1598 ;; Return value:  Size  Location     Type
  1599 ;;                  2    0[BANK0 ] int 
  1600 ;; Registers used:
  1601 ;;		wreg, fsr0l, fsr0h, status,2, status,0, btemp+1, pclath, cstack
  1602 ;; Tracked objects:
  1603 ;;		On entry : 0/0
  1604 ;;		On exit  : 0/0
  1605 ;;		Unchanged: 0/0
  1606 ;; Data sizes:     COMMON   BANK0   BANK1   BANK3   BANK2
  1607 ;;      Params:         0       3       0       0       0
  1608 ;;      Locals:         0       7       0       0       0
  1609 ;;      Temps:          0       3       0       0       0
  1610 ;;      Totals:         0      13       0       0       0
  1611 ;;Total ram usage:       13 bytes
  1612 ;; Hardware stack levels used:    1
  1613 ;; Hardware stack levels required when called:    1
  1614 ;; This function calls:
  1615 ;;		___lwdiv
  1616 ;;		___lwmod
  1617 ;; This function is called by:
  1618 ;;		_lcd_write_int
  1619 ;; This function uses a non-reentrant model
  1620 ;;
  1621                           
  1622                           
  1623                           ;psect for function _sprintf
  1624  0CFA                     _sprintf:	
  1625                           
  1626                           ;incstack = 0
  1627                           ; Regs used in _sprintf: [wreg-fsr0h+status,2+status,0+btemp+1+pclath+cstack]
  1628                           ;sprintf@sp stored from wreg
  1629  0CFA  1283               	bcf	3,5	;RP0=0, select bank0
  1630  0CFB  1303               	bcf	3,6	;RP1=0, select bank0
  1631  0CFC  00AB               	movwf	sprintf@sp
  1632  0CFD                     l1785:	
  1633                           
  1634                           ;C:\Program Files (x86)\Microchip\xc8\v2.10\pic\sources\c90\common\doprnt.c: 505: sprint
      +                          f(char * sp, const char * f, ...);C:\Program Files (x86)\Microchip\xc8\v2.10\pic\sources
      +                          \c90\common\doprnt.c: 506: {;C:\Program Files (x86)\Microchip\xc8\v2.10\pic\sources\c90\
      +                          common\doprnt.c: 507:  va_list ap;;C:\Program Files (x86)\Microchip\xc8\v2.10\pic\source
      +                          s\c90\common\doprnt.c: 512:  char c;;C:\Program Files (x86)\Microchip\xc8\v2.10\pic\sour
      +                          ces\c90\common\doprnt.c: 521:  signed char prec;;C:\Program Files (x86)\Microchip\xc8\v2
      +                          .10\pic\sources\c90\common\doprnt.c: 525:  unsigned char flag;
  1635  0CFD  3021               	movlw	(low ((?_sprintf| 0+1)))& (0+255)
  1636  0CFE  00A3               	movwf	??_sprintf
  1637  0CFF  0823               	movf	??_sprintf,w
  1638  0D00  00A6               	movwf	sprintf@ap
  1639                           
  1640                           ;C:\Program Files (x86)\Microchip\xc8\v2.10\pic\sources\c90\common\doprnt.c: 553:  while
      +                          ((c = *f++)) {
  1641  0D01  2DCB               	goto	l1837
  1642  0D02                     l1787:	
  1643                           
  1644                           ;C:\Program Files (x86)\Microchip\xc8\v2.10\pic\sources\c90\common\doprnt.c: 555:   if(c
      +                           != '%')
  1645  0D02  3025               	movlw	37
  1646  0D03  062C               	xorwf	sprintf@c,w
  1647  0D04  1903               	btfsc	3,2
  1648  0D05  2D07               	goto	u1981
  1649  0D06  2D08               	goto	u1980
  1650  0D07                     u1981:	
  1651  0D07  2D14               	goto	l1793
  1652  0D08                     u1980:	
  1653  0D08                     l1789:	
  1654                           
  1655                           ;C:\Program Files (x86)\Microchip\xc8\v2.10\pic\sources\c90\common\doprnt.c: 557:   {;C:
      +                          \Program Files (x86)\Microchip\xc8\v2.10\pic\sources\c90\common\doprnt.c: 558:    ((*sp+
      +                          + = (c)));
  1656  0D08  082C               	movf	sprintf@c,w
  1657  0D09  00A3               	movwf	??_sprintf
  1658  0D0A  082B               	movf	sprintf@sp,w
  1659  0D0B  0084               	movwf	4
  1660  0D0C  0823               	movf	??_sprintf,w
  1661  0D0D  1383               	bcf	3,7	;select IRP bank0
  1662  0D0E  0080               	movwf	0
  1663  0D0F                     l1791:	
  1664  0D0F  3001               	movlw	1
  1665  0D10  00A3               	movwf	??_sprintf
  1666  0D11  0823               	movf	??_sprintf,w
  1667  0D12  07AB               	addwf	sprintf@sp,f
  1668                           
  1669                           ;C:\Program Files (x86)\Microchip\xc8\v2.10\pic\sources\c90\common\doprnt.c: 559:    con
      +                          tinue;
  1670  0D13  2DCB               	goto	l1837
  1671  0D14                     l1793:	
  1672                           
  1673                           ;C:\Program Files (x86)\Microchip\xc8\v2.10\pic\sources\c90\common\doprnt.c: 565:   flag
      +                           = 0;
  1674  0D14  01A7               	clrf	sprintf@flag
  1675  0D15                     l1797:	
  1676                           ;C:\Program Files (x86)\Microchip\xc8\v2.10\pic\sources\c90\common\doprnt.c: 661:   swit
      +                          ch(c = *f++) {
  1677                           
  1678  0D15  3001               	movlw	1
  1679  0D16  07A0               	addwf	sprintf@f,f
  1680  0D17  30FF               	movlw	-1
  1681  0D18  0720               	addwf	sprintf@f,w
  1682  0D19  0084               	movwf	4
  1683  0D1A  120A  158A  200A  120A  158A  	fcall	stringdir
  1684  0D1F  00AC               	movwf	sprintf@c
  1685  0D20  00A3               	movwf	??_sprintf
  1686  0D21  01A4               	clrf	??_sprintf+1
  1687                           
  1688                           ; Switch on 2 bytes has been partitioned into a top level switch of size 1, and 1 sub-sw
      +                          itches
  1689                           ; Switch size 1, requested type "simple"
  1690                           ; Number of cases is 1, Range of values is 0 to 0
  1691                           ; switch strategies available:
  1692                           ; Name         Instructions Cycles
  1693                           ; simple_byte            4     3 (average)
  1694                           ; direct_byte           11     8 (fixed)
  1695                           ; jumptable            260     6 (fixed)
  1696                           ;	Chosen strategy is simple_byte
  1697  0D22  0824               	movf	??_sprintf+1,w
  1698  0D23  3A00               	xorlw	0	; case 0
  1699  0D24  1903               	skipnz
  1700  0D25  2D27               	goto	l2629
  1701  0D26  2DCB               	goto	l1837
  1702  0D27                     l2629:	
  1703                           
  1704                           ; Switch size 1, requested type "simple"
  1705                           ; Number of cases is 3, Range of values is 0 to 105
  1706                           ; switch strategies available:
  1707                           ; Name         Instructions Cycles
  1708                           ; simple_byte           10     6 (average)
  1709                           ; jumptable            260     6 (fixed)
  1710                           ;	Chosen strategy is simple_byte
  1711  0D27  0823               	movf	??_sprintf,w
  1712  0D28  3A00               	xorlw	0	; case 0
  1713  0D29  1903               	skipnz
  1714  0D2A  2DDD               	goto	l1839
  1715  0D2B  3A64               	xorlw	100	; case 100
  1716  0D2C  1903               	skipnz
  1717  0D2D  2D32               	goto	l1799
  1718  0D2E  3A0D               	xorlw	13	; case 105
  1719  0D2F  1903               	skipnz
  1720  0D30  2D32               	goto	l1799
  1721  0D31  2DCB               	goto	l1837
  1722  0D32                     l1799:	
  1723                           
  1724                           ;C:\Program Files (x86)\Microchip\xc8\v2.10\pic\sources\c90\common\doprnt.c: 1279:   {;C
      +                          :\Program Files (x86)\Microchip\xc8\v2.10\pic\sources\c90\common\doprnt.c: 1285:     val
      +                           = (unsigned int)(*(int *)__va_arg((*(int **)ap), (int)0));
  1725  0D32  0826               	movf	sprintf@ap,w
  1726  0D33  0084               	movwf	4
  1727  0D34  1383               	bcf	3,7	;select IRP bank0
  1728  0D35  0800               	movf	0,w
  1729  0D36  00A9               	movwf	sprintf@val
  1730  0D37  0A84               	incf	4,f
  1731  0D38  0800               	movf	0,w
  1732  0D39  00AA               	movwf	sprintf@val+1
  1733  0D3A                     l1801:	
  1734  0D3A  3002               	movlw	2
  1735  0D3B  00A3               	movwf	??_sprintf
  1736  0D3C  0823               	movf	??_sprintf,w
  1737  0D3D  07A6               	addwf	sprintf@ap,f
  1738  0D3E                     l1803:	
  1739                           
  1740                           ;C:\Program Files (x86)\Microchip\xc8\v2.10\pic\sources\c90\common\doprnt.c: 1287:    if
      +                          ((int)val < 0) {
  1741  0D3E  1FAA               	btfss	sprintf@val+1,7
  1742  0D3F  2D41               	goto	u1991
  1743  0D40  2D42               	goto	u1990
  1744  0D41                     u1991:	
  1745  0D41  2D4B               	goto	l1809
  1746  0D42                     u1990:	
  1747  0D42                     l1805:	
  1748                           
  1749                           ;C:\Program Files (x86)\Microchip\xc8\v2.10\pic\sources\c90\common\doprnt.c: 1288:     f
      +                          lag |= 0x03;
  1750  0D42  3003               	movlw	3
  1751  0D43  00A3               	movwf	??_sprintf
  1752  0D44  0823               	movf	??_sprintf,w
  1753  0D45  04A7               	iorwf	sprintf@flag,f
  1754  0D46                     l1807:	
  1755                           
  1756                           ;C:\Program Files (x86)\Microchip\xc8\v2.10\pic\sources\c90\common\doprnt.c: 1289:     v
      +                          al = -val;
  1757  0D46  09A9               	comf	sprintf@val,f
  1758  0D47  09AA               	comf	sprintf@val+1,f
  1759  0D48  0AA9               	incf	sprintf@val,f
  1760  0D49  1903               	skipnz
  1761  0D4A  0AAA               	incf	sprintf@val+1,f
  1762  0D4B                     l1809:	
  1763                           
  1764                           ;C:\Program Files (x86)\Microchip\xc8\v2.10\pic\sources\c90\common\doprnt.c: 1292:   };C
      +                          :\Program Files (x86)\Microchip\xc8\v2.10\pic\sources\c90\common\doprnt.c: 1331:    for(
      +                          c = 1 ; c != sizeof dpowers/sizeof dpowers[0] ; c++)
  1765  0D4B  01AC               	clrf	sprintf@c
  1766  0D4C  0AAC               	incf	sprintf@c,f
  1767  0D4D                     l1815:	
  1768                           
  1769                           ;C:\Program Files (x86)\Microchip\xc8\v2.10\pic\sources\c90\common\doprnt.c: 1332:     i
      +                          f(val < dpowers[c])
  1770  0D4D  082C               	movf	sprintf@c,w
  1771  0D4E  00A3               	movwf	??_sprintf
  1772  0D4F  0723               	addwf	??_sprintf,w
  1773  0D50  3E01               	addlw	low ((_dpowers-__stringbase)| (0+32768))
  1774  0D51  0084               	movwf	4
  1775  0D52  120A  158A  200A  120A  158A  	fcall	stringdir
  1776  0D57  00A4               	movwf	??_sprintf+1
  1777  0D58  120A  158A  200A  120A  158A  	fcall	stringdir
  1778  0D5D  00A5               	movwf	??_sprintf+2
  1779  0D5E  0825               	movf	??_sprintf+2,w
  1780  0D5F  022A               	subwf	sprintf@val+1,w
  1781  0D60  1D03               	skipz
  1782  0D61  2D64               	goto	u2005
  1783  0D62  0824               	movf	??_sprintf+1,w
  1784  0D63  0229               	subwf	sprintf@val,w
  1785  0D64                     u2005:	
  1786  0D64  1803               	skipnc
  1787  0D65  2D67               	goto	u2001
  1788  0D66  2D68               	goto	u2000
  1789  0D67                     u2001:	
  1790  0D67  2D69               	goto	l1819
  1791  0D68                     u2000:	
  1792  0D68  2D73               	goto	l1821
  1793  0D69                     l1819:	
  1794  0D69  3001               	movlw	1
  1795  0D6A  00A3               	movwf	??_sprintf
  1796  0D6B  0823               	movf	??_sprintf,w
  1797  0D6C  07AC               	addwf	sprintf@c,f
  1798  0D6D  3005               	movlw	5
  1799  0D6E  062C               	xorwf	sprintf@c,w
  1800  0D6F  1D03               	btfss	3,2
  1801  0D70  2D72               	goto	u2011
  1802  0D71  2D73               	goto	u2010
  1803  0D72                     u2011:	
  1804  0D72  2D4D               	goto	l1815
  1805  0D73                     u2010:	
  1806  0D73                     l1821:	
  1807                           
  1808                           ;C:\Program Files (x86)\Microchip\xc8\v2.10\pic\sources\c90\common\doprnt.c: 1448:   {;C
      +                          :\Program Files (x86)\Microchip\xc8\v2.10\pic\sources\c90\common\doprnt.c: 1464:    if(f
      +                          lag & 0x03)
  1809  0D73  0827               	movf	sprintf@flag,w
  1810  0D74  3903               	andlw	3
  1811  0D75  1903               	btfsc	3,2
  1812  0D76  2D78               	goto	u2021
  1813  0D77  2D79               	goto	u2020
  1814  0D78                     u2021:	
  1815  0D78  2D84               	goto	l1827
  1816  0D79                     u2020:	
  1817  0D79                     l1823:	
  1818                           
  1819                           ;C:\Program Files (x86)\Microchip\xc8\v2.10\pic\sources\c90\common\doprnt.c: 1465:     (
      +                          (*sp++ = ('-')));
  1820  0D79  302D               	movlw	45
  1821  0D7A  00A3               	movwf	??_sprintf
  1822  0D7B  082B               	movf	sprintf@sp,w
  1823  0D7C  0084               	movwf	4
  1824  0D7D  0823               	movf	??_sprintf,w
  1825  0D7E  1383               	bcf	3,7	;select IRP bank0
  1826  0D7F  0080               	movwf	0
  1827  0D80                     l1825:	
  1828  0D80  3001               	movlw	1
  1829  0D81  00A3               	movwf	??_sprintf
  1830  0D82  0823               	movf	??_sprintf,w
  1831  0D83  07AB               	addwf	sprintf@sp,f
  1832  0D84                     l1827:	
  1833                           
  1834                           ;C:\Program Files (x86)\Microchip\xc8\v2.10\pic\sources\c90\common\doprnt.c: 1495:   };C
      +                          :\Program Files (x86)\Microchip\xc8\v2.10\pic\sources\c90\common\doprnt.c: 1498:   prec 
      +                          = c;
  1835  0D84  082C               	movf	sprintf@c,w
  1836  0D85  00A3               	movwf	??_sprintf
  1837  0D86  0823               	movf	??_sprintf,w
  1838  0D87  00A8               	movwf	sprintf@prec
  1839                           
  1840                           ;C:\Program Files (x86)\Microchip\xc8\v2.10\pic\sources\c90\common\doprnt.c: 1500:   whi
      +                          le(prec--) {
  1841  0D88  2DC2               	goto	l1835
  1842  0D89                     l1829:	
  1843                           
  1844                           ;C:\Program Files (x86)\Microchip\xc8\v2.10\pic\sources\c90\common\doprnt.c: 1504:    {;
      +                          C:\Program Files (x86)\Microchip\xc8\v2.10\pic\sources\c90\common\doprnt.c: 1515:     c 
      +                          = (val / dpowers[(unsigned char)prec]) % 10 + '0';
  1845  0D89  300A               	movlw	10
  1846  0D8A  00F8               	movwf	___lwmod@divisor
  1847  0D8B  3000               	movlw	0
  1848  0D8C  00F9               	movwf	___lwmod@divisor+1
  1849  0D8D  0828               	movf	sprintf@prec,w
  1850  0D8E  00A3               	movwf	??_sprintf
  1851  0D8F  0723               	addwf	??_sprintf,w
  1852  0D90  3E01               	addlw	low ((_dpowers-__stringbase)| (0+32768))
  1853  0D91  0084               	movwf	4
  1854  0D92  120A  158A  200A  120A  158A  	fcall	stringdir
  1855  0D97  00F0               	movwf	___lwdiv@divisor
  1856  0D98  120A  158A  200A  120A  158A  	fcall	stringdir
  1857  0D9D  00F1               	movwf	___lwdiv@divisor+1
  1858  0D9E  082A               	movf	sprintf@val+1,w
  1859  0D9F  00F3               	movwf	___lwdiv@dividend+1
  1860  0DA0  0829               	movf	sprintf@val,w
  1861  0DA1  00F2               	movwf	___lwdiv@dividend
  1862  0DA2  120A  158A  22CB  120A  158A  	fcall	___lwdiv
  1863  0DA7  0871               	movf	?___lwdiv+1,w
  1864  0DA8  00FB               	movwf	___lwmod@dividend+1
  1865  0DA9  0870               	movf	?___lwdiv,w
  1866  0DAA  00FA               	movwf	___lwmod@dividend
  1867  0DAB  120A  158A  224F  120A  158A  	fcall	___lwmod
  1868  0DB0  0878               	movf	?___lwmod,w
  1869  0DB1  3E30               	addlw	48
  1870  0DB2  1283               	bcf	3,5	;RP0=0, select bank0
  1871  0DB3  1303               	bcf	3,6	;RP1=0, select bank0
  1872  0DB4  00A4               	movwf	??_sprintf+1
  1873  0DB5  0824               	movf	??_sprintf+1,w
  1874  0DB6  00AC               	movwf	sprintf@c
  1875  0DB7                     l1831:	
  1876                           
  1877                           ;C:\Program Files (x86)\Microchip\xc8\v2.10\pic\sources\c90\common\doprnt.c: 1549:    };
      +                          C:\Program Files (x86)\Microchip\xc8\v2.10\pic\sources\c90\common\doprnt.c: 1550:    ((*
      +                          sp++ = (c)));
  1878  0DB7  082C               	movf	sprintf@c,w
  1879  0DB8  00A3               	movwf	??_sprintf
  1880  0DB9  082B               	movf	sprintf@sp,w
  1881  0DBA  0084               	movwf	4
  1882  0DBB  0823               	movf	??_sprintf,w
  1883  0DBC  1383               	bcf	3,7	;select IRP bank0
  1884  0DBD  0080               	movwf	0
  1885  0DBE                     l1833:	
  1886  0DBE  3001               	movlw	1
  1887  0DBF  00A3               	movwf	??_sprintf
  1888  0DC0  0823               	movf	??_sprintf,w
  1889  0DC1  07AB               	addwf	sprintf@sp,f
  1890  0DC2                     l1835:	
  1891                           
  1892                           ;C:\Program Files (x86)\Microchip\xc8\v2.10\pic\sources\c90\common\doprnt.c: 1500:   whi
      +                          le(prec--) {
  1893  0DC2  30FF               	movlw	255
  1894  0DC3  00A3               	movwf	??_sprintf
  1895  0DC4  0823               	movf	??_sprintf,w
  1896  0DC5  07A8               	addwf	sprintf@prec,f
  1897  0DC6  0A28               	incf	sprintf@prec,w
  1898  0DC7  1D03               	btfss	3,2
  1899  0DC8  2DCA               	goto	u2031
  1900  0DC9  2DCB               	goto	u2030
  1901  0DCA                     u2031:	
  1902  0DCA  2D89               	goto	l1829
  1903  0DCB                     u2030:	
  1904  0DCB                     l1837:	
  1905                           
  1906                           ;C:\Program Files (x86)\Microchip\xc8\v2.10\pic\sources\c90\common\doprnt.c: 553:  while
      +                          ((c = *f++)) {
  1907  0DCB  3001               	movlw	1
  1908  0DCC  07A0               	addwf	sprintf@f,f
  1909  0DCD  30FF               	movlw	-1
  1910  0DCE  0720               	addwf	sprintf@f,w
  1911  0DCF  0084               	movwf	4
  1912  0DD0  120A  158A  200A  120A  158A  	fcall	stringdir
  1913  0DD5  00A3               	movwf	??_sprintf
  1914  0DD6  0823               	movf	??_sprintf,w
  1915  0DD7  00AC               	movwf	sprintf@c
  1916  0DD8  082C               	movf	sprintf@c,w
  1917  0DD9  1D03               	btfss	3,2
  1918  0DDA  2DDC               	goto	u2041
  1919  0DDB  2DDD               	goto	u2040
  1920  0DDC                     u2041:	
  1921  0DDC  2D02               	goto	l1787
  1922  0DDD                     u2040:	
  1923  0DDD                     l1839:	
  1924                           
  1925                           ;C:\Program Files (x86)\Microchip\xc8\v2.10\pic\sources\c90\common\doprnt.c: 1564:  *sp 
      +                          = 0;
  1926  0DDD  082B               	movf	sprintf@sp,w
  1927  0DDE  0084               	movwf	4
  1928  0DDF  1383               	bcf	3,7	;select IRP bank0
  1929  0DE0  0180               	clrf	0
  1930  0DE1                     l265:	
  1931  0DE1  0008               	return
  1932  0DE2                     __end_of_sprintf:	
  1933                           
  1934                           	psect	text3
  1935  0A4F                     __ptext3:	
  1936 ;; *************** function ___lwmod *****************
  1937 ;; Defined at:
  1938 ;;		line 5 in file "C:\Program Files (x86)\Microchip\xc8\v2.10\pic\sources\c90\common\lwmod.c"
  1939 ;; Parameters:    Size  Location     Type
  1940 ;;  divisor         2    8[COMMON] unsigned int 
  1941 ;;  dividend        2   10[COMMON] unsigned int 
  1942 ;; Auto vars:     Size  Location     Type
  1943 ;;  counter         1   13[COMMON] unsigned char 
  1944 ;; Return value:  Size  Location     Type
  1945 ;;                  2    8[COMMON] unsigned int 
  1946 ;; Registers used:
  1947 ;;		wreg, status,2, status,0
  1948 ;; Tracked objects:
  1949 ;;		On entry : 0/0
  1950 ;;		On exit  : 0/0
  1951 ;;		Unchanged: 0/0
  1952 ;; Data sizes:     COMMON   BANK0   BANK1   BANK3   BANK2
  1953 ;;      Params:         4       0       0       0       0
  1954 ;;      Locals:         1       0       0       0       0
  1955 ;;      Temps:          1       0       0       0       0
  1956 ;;      Totals:         6       0       0       0       0
  1957 ;;Total ram usage:        6 bytes
  1958 ;; Hardware stack levels used:    1
  1959 ;; This function calls:
  1960 ;;		Nothing
  1961 ;; This function is called by:
  1962 ;;		_sprintf
  1963 ;; This function uses a non-reentrant model
  1964 ;;
  1965                           
  1966                           
  1967                           ;psect for function ___lwmod
  1968  0A4F                     ___lwmod:	
  1969  0A4F                     l1743:	
  1970                           ;incstack = 0
  1971                           ; Regs used in ___lwmod: [wreg+status,2+status,0]
  1972                           
  1973  0A4F  0878               	movf	___lwmod@divisor,w
  1974  0A50  0479               	iorwf	___lwmod@divisor+1,w
  1975  0A51  1903               	btfsc	3,2
  1976  0A52  2A54               	goto	u1871
  1977  0A53  2A55               	goto	u1870
  1978  0A54                     u1871:	
  1979  0A54  2A84               	goto	l1761
  1980  0A55                     u1870:	
  1981  0A55                     l1745:	
  1982  0A55  01FD               	clrf	___lwmod@counter
  1983  0A56  0AFD               	incf	___lwmod@counter,f
  1984  0A57  2A63               	goto	l1751
  1985  0A58                     l1747:	
  1986  0A58  3001               	movlw	1
  1987  0A59                     u1885:	
  1988  0A59  1003               	clrc
  1989  0A5A  0DF8               	rlf	___lwmod@divisor,f
  1990  0A5B  0DF9               	rlf	___lwmod@divisor+1,f
  1991  0A5C  3EFF               	addlw	-1
  1992  0A5D  1D03               	skipz
  1993  0A5E  2A59               	goto	u1885
  1994  0A5F                     l1749:	
  1995  0A5F  3001               	movlw	1
  1996  0A60  00FC               	movwf	??___lwmod
  1997  0A61  087C               	movf	??___lwmod,w
  1998  0A62  07FD               	addwf	___lwmod@counter,f
  1999  0A63                     l1751:	
  2000  0A63  1FF9               	btfss	___lwmod@divisor+1,7
  2001  0A64  2A66               	goto	u1891
  2002  0A65  2A67               	goto	u1890
  2003  0A66                     u1891:	
  2004  0A66  2A58               	goto	l1747
  2005  0A67                     u1890:	
  2006  0A67                     l1753:	
  2007  0A67  0879               	movf	___lwmod@divisor+1,w
  2008  0A68  027B               	subwf	___lwmod@dividend+1,w
  2009  0A69  1D03               	skipz
  2010  0A6A  2A6D               	goto	u1905
  2011  0A6B  0878               	movf	___lwmod@divisor,w
  2012  0A6C  027A               	subwf	___lwmod@dividend,w
  2013  0A6D                     u1905:	
  2014  0A6D  1C03               	skipc
  2015  0A6E  2A70               	goto	u1901
  2016  0A6F  2A71               	goto	u1900
  2017  0A70                     u1901:	
  2018  0A70  2A77               	goto	l1757
  2019  0A71                     u1900:	
  2020  0A71                     l1755:	
  2021  0A71  0878               	movf	___lwmod@divisor,w
  2022  0A72  02FA               	subwf	___lwmod@dividend,f
  2023  0A73  0879               	movf	___lwmod@divisor+1,w
  2024  0A74  1C03               	skipc
  2025  0A75  03FB               	decf	___lwmod@dividend+1,f
  2026  0A76  02FB               	subwf	___lwmod@dividend+1,f
  2027  0A77                     l1757:	
  2028  0A77  3001               	movlw	1
  2029  0A78                     u1915:	
  2030  0A78  1003               	clrc
  2031  0A79  0CF9               	rrf	___lwmod@divisor+1,f
  2032  0A7A  0CF8               	rrf	___lwmod@divisor,f
  2033  0A7B  3EFF               	addlw	-1
  2034  0A7C  1D03               	skipz
  2035  0A7D  2A78               	goto	u1915
  2036  0A7E                     l1759:	
  2037  0A7E  3001               	movlw	1
  2038  0A7F  02FD               	subwf	___lwmod@counter,f
  2039  0A80  1D03               	btfss	3,2
  2040  0A81  2A83               	goto	u1921
  2041  0A82  2A84               	goto	u1920
  2042  0A83                     u1921:	
  2043  0A83  2A67               	goto	l1753
  2044  0A84                     u1920:	
  2045  0A84                     l1761:	
  2046  0A84  087B               	movf	___lwmod@dividend+1,w
  2047  0A85  00F9               	movwf	?___lwmod+1
  2048  0A86  087A               	movf	___lwmod@dividend,w
  2049  0A87  00F8               	movwf	?___lwmod
  2050  0A88                     l551:	
  2051  0A88  0008               	return
  2052  0A89                     __end_of___lwmod:	
  2053                           
  2054                           	psect	text4
  2055  0ACB                     __ptext4:	
  2056 ;; *************** function ___lwdiv *****************
  2057 ;; Defined at:
  2058 ;;		line 5 in file "C:\Program Files (x86)\Microchip\xc8\v2.10\pic\sources\c90\common\lwdiv.c"
  2059 ;; Parameters:    Size  Location     Type
  2060 ;;  divisor         2    0[COMMON] unsigned int 
  2061 ;;  dividend        2    2[COMMON] unsigned int 
  2062 ;; Auto vars:     Size  Location     Type
  2063 ;;  quotient        2    5[COMMON] unsigned int 
  2064 ;;  counter         1    7[COMMON] unsigned char 
  2065 ;; Return value:  Size  Location     Type
  2066 ;;                  2    0[COMMON] unsigned int 
  2067 ;; Registers used:
  2068 ;;		wreg, status,2, status,0
  2069 ;; Tracked objects:
  2070 ;;		On entry : 0/0
  2071 ;;		On exit  : 0/0
  2072 ;;		Unchanged: 0/0
  2073 ;; Data sizes:     COMMON   BANK0   BANK1   BANK3   BANK2
  2074 ;;      Params:         4       0       0       0       0
  2075 ;;      Locals:         3       0       0       0       0
  2076 ;;      Temps:          1       0       0       0       0
  2077 ;;      Totals:         8       0       0       0       0
  2078 ;;Total ram usage:        8 bytes
  2079 ;; Hardware stack levels used:    1
  2080 ;; This function calls:
  2081 ;;		Nothing
  2082 ;; This function is called by:
  2083 ;;		_sprintf
  2084 ;; This function uses a non-reentrant model
  2085 ;;
  2086                           
  2087                           
  2088                           ;psect for function ___lwdiv
  2089  0ACB                     ___lwdiv:	
  2090  0ACB                     l1717:	
  2091                           ;incstack = 0
  2092                           ; Regs used in ___lwdiv: [wreg+status,2+status,0]
  2093                           
  2094  0ACB  01F5               	clrf	___lwdiv@quotient
  2095  0ACC  01F6               	clrf	___lwdiv@quotient+1
  2096  0ACD                     l1719:	
  2097  0ACD  0870               	movf	___lwdiv@divisor,w
  2098  0ACE  0471               	iorwf	___lwdiv@divisor+1,w
  2099  0ACF  1903               	btfsc	3,2
  2100  0AD0  2AD2               	goto	u1801
  2101  0AD1  2AD3               	goto	u1800
  2102  0AD2                     u1801:	
  2103  0AD2  2B0A               	goto	l1739
  2104  0AD3                     u1800:	
  2105  0AD3                     l1721:	
  2106  0AD3  01F7               	clrf	___lwdiv@counter
  2107  0AD4  0AF7               	incf	___lwdiv@counter,f
  2108  0AD5  2AE1               	goto	l1727
  2109  0AD6                     l1723:	
  2110  0AD6  3001               	movlw	1
  2111  0AD7                     u1815:	
  2112  0AD7  1003               	clrc
  2113  0AD8  0DF0               	rlf	___lwdiv@divisor,f
  2114  0AD9  0DF1               	rlf	___lwdiv@divisor+1,f
  2115  0ADA  3EFF               	addlw	-1
  2116  0ADB  1D03               	skipz
  2117  0ADC  2AD7               	goto	u1815
  2118  0ADD                     l1725:	
  2119  0ADD  3001               	movlw	1
  2120  0ADE  00F4               	movwf	??___lwdiv
  2121  0ADF  0874               	movf	??___lwdiv,w
  2122  0AE0  07F7               	addwf	___lwdiv@counter,f
  2123  0AE1                     l1727:	
  2124  0AE1  1FF1               	btfss	___lwdiv@divisor+1,7
  2125  0AE2  2AE4               	goto	u1821
  2126  0AE3  2AE5               	goto	u1820
  2127  0AE4                     u1821:	
  2128  0AE4  2AD6               	goto	l1723
  2129  0AE5                     u1820:	
  2130  0AE5                     l1729:	
  2131  0AE5  3001               	movlw	1
  2132  0AE6                     u1835:	
  2133  0AE6  1003               	clrc
  2134  0AE7  0DF5               	rlf	___lwdiv@quotient,f
  2135  0AE8  0DF6               	rlf	___lwdiv@quotient+1,f
  2136  0AE9  3EFF               	addlw	-1
  2137  0AEA  1D03               	skipz
  2138  0AEB  2AE6               	goto	u1835
  2139  0AEC  0871               	movf	___lwdiv@divisor+1,w
  2140  0AED  0273               	subwf	___lwdiv@dividend+1,w
  2141  0AEE  1D03               	skipz
  2142  0AEF  2AF2               	goto	u1845
  2143  0AF0  0870               	movf	___lwdiv@divisor,w
  2144  0AF1  0272               	subwf	___lwdiv@dividend,w
  2145  0AF2                     u1845:	
  2146  0AF2  1C03               	skipc
  2147  0AF3  2AF5               	goto	u1841
  2148  0AF4  2AF6               	goto	u1840
  2149  0AF5                     u1841:	
  2150  0AF5  2AFD               	goto	l1735
  2151  0AF6                     u1840:	
  2152  0AF6                     l1731:	
  2153  0AF6  0870               	movf	___lwdiv@divisor,w
  2154  0AF7  02F2               	subwf	___lwdiv@dividend,f
  2155  0AF8  0871               	movf	___lwdiv@divisor+1,w
  2156  0AF9  1C03               	skipc
  2157  0AFA  03F3               	decf	___lwdiv@dividend+1,f
  2158  0AFB  02F3               	subwf	___lwdiv@dividend+1,f
  2159  0AFC                     l1733:	
  2160  0AFC  1475               	bsf	___lwdiv@quotient,0
  2161  0AFD                     l1735:	
  2162  0AFD  3001               	movlw	1
  2163  0AFE                     u1855:	
  2164  0AFE  1003               	clrc
  2165  0AFF  0CF1               	rrf	___lwdiv@divisor+1,f
  2166  0B00  0CF0               	rrf	___lwdiv@divisor,f
  2167  0B01  3EFF               	addlw	-1
  2168  0B02  1D03               	skipz
  2169  0B03  2AFE               	goto	u1855
  2170  0B04                     l1737:	
  2171  0B04  3001               	movlw	1
  2172  0B05  02F7               	subwf	___lwdiv@counter,f
  2173  0B06  1D03               	btfss	3,2
  2174  0B07  2B09               	goto	u1861
  2175  0B08  2B0A               	goto	u1860
  2176  0B09                     u1861:	
  2177  0B09  2AE5               	goto	l1729
  2178  0B0A                     u1860:	
  2179  0B0A                     l1739:	
  2180  0B0A  0876               	movf	___lwdiv@quotient+1,w
  2181  0B0B  00F1               	movwf	?___lwdiv+1
  2182  0B0C  0875               	movf	___lwdiv@quotient,w
  2183  0B0D  00F0               	movwf	?___lwdiv
  2184  0B0E                     l541:	
  2185  0B0E  0008               	return
  2186  0B0F                     __end_of___lwdiv:	
  2187                           
  2188                           	psect	text5
  2189  0A89                     __ptext5:	
  2190 ;; *************** function _lcd_write_string *****************
  2191 ;; Defined at:
  2192 ;;		line 59 in file "LCD_Init.c"
  2193 ;; Parameters:    Size  Location     Type
  2194 ;;  var             2    3[COMMON] PTR unsigned char 
  2195 ;;		 -> lcd_write_int@buffer(4), STR_5(2), STR_4(3), STR_3(5), 
  2196 ;;		 -> STR_2(6), STR_1(4), 
  2197 ;; Auto vars:     Size  Location     Type
  2198 ;;  i               2    8[COMMON] int 
  2199 ;; Return value:  Size  Location     Type
  2200 ;;                  1    wreg      void 
  2201 ;; Registers used:
  2202 ;;		wreg, fsr0l, fsr0h, status,2, status,0, btemp+1, pclath, cstack
  2203 ;; Tracked objects:
  2204 ;;		On entry : 0/0
  2205 ;;		On exit  : 0/0
  2206 ;;		Unchanged: 0/0
  2207 ;; Data sizes:     COMMON   BANK0   BANK1   BANK3   BANK2
  2208 ;;      Params:         2       0       0       0       0
  2209 ;;      Locals:         2       0       0       0       0
  2210 ;;      Temps:          3       0       0       0       0
  2211 ;;      Totals:         7       0       0       0       0
  2212 ;;Total ram usage:        7 bytes
  2213 ;; Hardware stack levels used:    1
  2214 ;; Hardware stack levels required when called:    1
  2215 ;; This function calls:
  2216 ;;		_lcd_write_char
  2217 ;; This function is called by:
  2218 ;;		_main
  2219 ;;		_lcd_write_int
  2220 ;; This function uses a non-reentrant model
  2221 ;;
  2222                           
  2223                           
  2224                           ;psect for function _lcd_write_string
  2225  0A89                     _lcd_write_string:	
  2226  0A89                     l1765:	
  2227                           ;incstack = 0
  2228                           ; Regs used in _lcd_write_string: [wreg-fsr0h+status,2+status,0+btemp+1+pclath+cstack]
  2229                           
  2230                           
  2231                           ;LCD_Init.c: 60:     int i;;LCD_Init.c: 61:  for(i=0;var[i]!='\0';i++)
  2232  0A89  01F8               	clrf	lcd_write_string@i
  2233  0A8A  01F9               	clrf	lcd_write_string@i+1
  2234  0A8B  2AAE               	goto	l1771
  2235  0A8C                     l1767:	
  2236                           
  2237                           ;LCD_Init.c: 62:     lcd_write_char(var[i]);
  2238  0A8C  0878               	movf	lcd_write_string@i,w
  2239  0A8D  0773               	addwf	lcd_write_string@var,w
  2240  0A8E  00F6               	movwf	??_lcd_write_string+1
  2241  0A8F  0874               	movf	lcd_write_string@var+1,w
  2242  0A90  00F5               	movwf	??_lcd_write_string
  2243  0A91  1803               	skipnc
  2244  0A92  0AF5               	incf	??_lcd_write_string,f
  2245  0A93  1FF8               	btfss	lcd_write_string@i,7
  2246  0A94  2A96               	goto	u1930
  2247  0A95  03F5               	decf	??_lcd_write_string,f
  2248  0A96                     u1930:	
  2249  0A96  0875               	movf	??_lcd_write_string,w
  2250  0A97  00F7               	movwf	??_lcd_write_string+2
  2251  0A98  0877               	movf	??_lcd_write_string+2,w
  2252  0A99  1283               	bcf	3,5	;RP0=0, select bank0
  2253  0A9A  1303               	bcf	3,6	;RP1=0, select bank0
  2254  0A9B  00FF               	movwf	btemp+1
  2255  0A9C  0876               	movf	??_lcd_write_string+1,w
  2256  0A9D  0084               	movwf	4
  2257  0A9E  120A  158A  2000  120A  158A  	fcall	stringtab
  2258  0AA3  120A  118A  2003  120A  158A  	fcall	_lcd_write_char
  2259  0AA8                     l1769:	
  2260  0AA8  3001               	movlw	1
  2261  0AA9  07F8               	addwf	lcd_write_string@i,f
  2262  0AAA  1803               	skipnc
  2263  0AAB  0AF9               	incf	lcd_write_string@i+1,f
  2264  0AAC  3000               	movlw	0
  2265  0AAD  07F9               	addwf	lcd_write_string@i+1,f
  2266  0AAE                     l1771:	
  2267  0AAE  0878               	movf	lcd_write_string@i,w
  2268  0AAF  0773               	addwf	lcd_write_string@var,w
  2269  0AB0  00F6               	movwf	??_lcd_write_string+1
  2270  0AB1  0874               	movf	lcd_write_string@var+1,w
  2271  0AB2  00F5               	movwf	??_lcd_write_string
  2272  0AB3  1803               	skipnc
  2273  0AB4  0AF5               	incf	??_lcd_write_string,f
  2274  0AB5  1FF8               	btfss	lcd_write_string@i,7
  2275  0AB6  2AB8               	goto	u1940
  2276  0AB7  03F5               	decf	??_lcd_write_string,f
  2277  0AB8                     u1940:	
  2278  0AB8  0875               	movf	??_lcd_write_string,w
  2279  0AB9  00F7               	movwf	??_lcd_write_string+2
  2280  0ABA  0877               	movf	??_lcd_write_string+2,w
  2281  0ABB  1283               	bcf	3,5	;RP0=0, select bank0
  2282  0ABC  1303               	bcf	3,6	;RP1=0, select bank0
  2283  0ABD  00FF               	movwf	btemp+1
  2284  0ABE  0876               	movf	??_lcd_write_string+1,w
  2285  0ABF  0084               	movwf	4
  2286  0AC0  120A  158A  2000  120A  158A  	fcall	stringtab
  2287  0AC5  3A00               	xorlw	0
  2288  0AC6  1D03               	skipz
  2289  0AC7  2AC9               	goto	u1951
  2290  0AC8  2ACA               	goto	u1950
  2291  0AC9                     u1951:	
  2292  0AC9  2A8C               	goto	l1767
  2293  0ACA                     u1950:	
  2294  0ACA                     l152:	
  2295  0ACA  0008               	return
  2296  0ACB                     __end_of_lcd_write_string:	
  2297                           
  2298                           	psect	text6
  2299  0003                     __ptext6:	
  2300 ;; *************** function _lcd_write_char *****************
  2301 ;; Defined at:
  2302 ;;		line 51 in file "LCD_Init.c"
  2303 ;; Parameters:    Size  Location     Type
  2304 ;;  var             1    wreg     unsigned char 
  2305 ;; Auto vars:     Size  Location     Type
  2306 ;;  var             1    2[COMMON] unsigned char 
  2307 ;; Return value:  Size  Location     Type
  2308 ;;                  1    wreg      void 
  2309 ;; Registers used:
  2310 ;;		wreg
  2311 ;; Tracked objects:
  2312 ;;		On entry : 0/0
  2313 ;;		On exit  : 0/0
  2314 ;;		Unchanged: 0/0
  2315 ;; Data sizes:     COMMON   BANK0   BANK1   BANK3   BANK2
  2316 ;;      Params:         0       0       0       0       0
  2317 ;;      Locals:         1       0       0       0       0
  2318 ;;      Temps:          2       0       0       0       0
  2319 ;;      Totals:         3       0       0       0       0
  2320 ;;Total ram usage:        3 bytes
  2321 ;; Hardware stack levels used:    1
  2322 ;; This function calls:
  2323 ;;		Nothing
  2324 ;; This function is called by:
  2325 ;;		_main
  2326 ;;		_lcd_write_string
  2327 ;; This function uses a non-reentrant model
  2328 ;;
  2329                           
  2330                           
  2331                           ;psect for function _lcd_write_char
  2332  0003                     _lcd_write_char:	
  2333                           
  2334                           ;incstack = 0
  2335                           ; Regs used in _lcd_write_char: [wreg]
  2336                           ;lcd_write_char@var stored from wreg
  2337  0003  00F2               	movwf	lcd_write_char@var
  2338  0004                     l1709:	
  2339                           
  2340                           ;LCD_Init.c: 52:     PORTBbits.RB6 = 1;
  2341  0004  1283               	bcf	3,5	;RP0=0, select bank0
  2342  0005  1303               	bcf	3,6	;RP1=0, select bank0
  2343  0006  1706               	bsf	6,6	;volatile
  2344  0007                     l1711:	
  2345                           
  2346                           ;LCD_Init.c: 53:     PORTD = var;
  2347  0007  0872               	movf	lcd_write_char@var,w
  2348  0008  0088               	movwf	8	;volatile
  2349  0009                     l1713:	
  2350                           
  2351                           ;LCD_Init.c: 54:     PORTBbits.RB7 = 1;
  2352  0009  1786               	bsf	6,7	;volatile
  2353                           
  2354                           ;LCD_Init.c: 55:     _delay((unsigned long)((4)*(4000000/4000.0)));
  2355  000A  3006               	movlw	6
  2356  000B  00F1               	movwf	??_lcd_write_char+1
  2357  000C  3030               	movlw	48
  2358  000D  00F0               	movwf	??_lcd_write_char
  2359  000E                     u3617:	
  2360  000E  0BF0               	decfsz	??_lcd_write_char,f
  2361  000F  280E               	goto	u3617
  2362  0010  0BF1               	decfsz	??_lcd_write_char+1,f
  2363  0011  280E               	goto	u3617
  2364  0012  0000               	nop
  2365  0013                     l1715:	
  2366                           
  2367                           ;LCD_Init.c: 56:     PORTBbits.RB7 = 0;
  2368  0013  1283               	bcf	3,5	;RP0=0, select bank0
  2369  0014  1303               	bcf	3,6	;RP1=0, select bank0
  2370  0015  1386               	bcf	6,7	;volatile
  2371  0016                     l146:	
  2372  0016  0008               	return
  2373  0017                     __end_of_lcd_write_char:	
  2374                           
  2375                           	psect	text7
  2376  0965                     __ptext7:	
  2377 ;; *************** function _lcd_set_cursor *****************
  2378 ;; Defined at:
  2379 ;;		line 42 in file "LCD_Init.c"
  2380 ;; Parameters:    Size  Location     Type
  2381 ;;  posx            1    wreg     unsigned char 
  2382 ;;  posy            1    3[COMMON] unsigned char 
  2383 ;; Auto vars:     Size  Location     Type
  2384 ;;  posx            1    4[COMMON] unsigned char 
  2385 ;; Return value:  Size  Location     Type
  2386 ;;                  1    wreg      void 
  2387 ;; Registers used:
  2388 ;;		wreg, status,2, status,0, pclath, cstack
  2389 ;; Tracked objects:
  2390 ;;		On entry : 0/0
  2391 ;;		On exit  : 0/0
  2392 ;;		Unchanged: 0/0
  2393 ;; Data sizes:     COMMON   BANK0   BANK1   BANK3   BANK2
  2394 ;;      Params:         1       0       0       0       0
  2395 ;;      Locals:         1       0       0       0       0
  2396 ;;      Temps:          0       0       0       0       0
  2397 ;;      Totals:         2       0       0       0       0
  2398 ;;Total ram usage:        2 bytes
  2399 ;; Hardware stack levels used:    1
  2400 ;; Hardware stack levels required when called:    1
  2401 ;; This function calls:
  2402 ;;		_lcd_cmd
  2403 ;; This function is called by:
  2404 ;;		_main
  2405 ;; This function uses a non-reentrant model
  2406 ;;
  2407                           
  2408                           
  2409                           ;psect for function _lcd_set_cursor
  2410  0965                     _lcd_set_cursor:	
  2411                           
  2412                           ;incstack = 0
  2413                           ; Regs used in _lcd_set_cursor: [wreg+status,2+status,0+pclath+cstack]
  2414                           ;lcd_set_cursor@posx stored from wreg
  2415  0965  00F4               	movwf	lcd_set_cursor@posx
  2416  0966                     l2113:	
  2417                           
  2418                           ;LCD_Init.c: 43:     if(posy == 1){
  2419  0966  0373               	decf	lcd_set_cursor@posy,w
  2420  0967  1D03               	btfss	3,2
  2421  0968  296A               	goto	u2621
  2422  0969  296B               	goto	u2620
  2423  096A                     u2621:	
  2424  096A  2972               	goto	l2117
  2425  096B                     u2620:	
  2426  096B                     l2115:	
  2427                           
  2428                           ;LCD_Init.c: 44:         lcd_cmd (0x80 + posx - 1);
  2429  096B  0874               	movf	lcd_set_cursor@posx,w
  2430  096C  3E7F               	addlw	127
  2431  096D  120A  158A  2151  120A  158A  	fcall	_lcd_cmd
  2432  0972                     l2117:	
  2433                           
  2434                           ;LCD_Init.c: 46:     if(posy == 2){
  2435  0972  3002               	movlw	2
  2436  0973  0673               	xorwf	lcd_set_cursor@posy,w
  2437  0974  1D03               	btfss	3,2
  2438  0975  2977               	goto	u2631
  2439  0976  2978               	goto	u2630
  2440  0977                     u2631:	
  2441  0977  297F               	goto	l143
  2442  0978                     u2630:	
  2443  0978                     l2119:	
  2444                           
  2445                           ;LCD_Init.c: 47:         lcd_cmd (0xC0 + posx - 1);
  2446  0978  0874               	movf	lcd_set_cursor@posx,w
  2447  0979  3EBF               	addlw	191
  2448  097A  120A  158A  2151  120A  158A  	fcall	_lcd_cmd
  2449  097F                     l143:	
  2450  097F  0008               	return
  2451  0980                     __end_of_lcd_set_cursor:	
  2452                           
  2453                           	psect	text8
  2454  0921                     __ptext8:	
  2455 ;; *************** function _lcd_clr *****************
  2456 ;; Defined at:
  2457 ;;		line 38 in file "LCD_Init.c"
  2458 ;; Parameters:    Size  Location     Type
  2459 ;;		None
  2460 ;; Auto vars:     Size  Location     Type
  2461 ;;		None
  2462 ;; Return value:  Size  Location     Type
  2463 ;;                  1    wreg      void 
  2464 ;; Registers used:
  2465 ;;		wreg, status,2, status,0, pclath, cstack
  2466 ;; Tracked objects:
  2467 ;;		On entry : 0/0
  2468 ;;		On exit  : 0/0
  2469 ;;		Unchanged: 0/0
  2470 ;; Data sizes:     COMMON   BANK0   BANK1   BANK3   BANK2
  2471 ;;      Params:         0       0       0       0       0
  2472 ;;      Locals:         0       0       0       0       0
  2473 ;;      Temps:          0       0       0       0       0
  2474 ;;      Totals:         0       0       0       0       0
  2475 ;;Total ram usage:        0 bytes
  2476 ;; Hardware stack levels used:    1
  2477 ;; Hardware stack levels required when called:    1
  2478 ;; This function calls:
  2479 ;;		_lcd_cmd
  2480 ;; This function is called by:
  2481 ;;		_main
  2482 ;; This function uses a non-reentrant model
  2483 ;;
  2484                           
  2485                           
  2486                           ;psect for function _lcd_clr
  2487  0921                     _lcd_clr:	
  2488  0921                     l2111:	
  2489                           ;incstack = 0
  2490                           ; Regs used in _lcd_clr: [wreg+status,2+status,0+pclath+cstack]
  2491                           
  2492                           
  2493                           ;LCD_Init.c: 39:     lcd_cmd(0x01);
  2494  0921  3001               	movlw	1
  2495  0922  120A  158A  2151  120A  158A  	fcall	_lcd_cmd
  2496  0927                     l138:	
  2497  0927  0008               	return
  2498  0928                     __end_of_lcd_clr:	
  2499                           
  2500                           	psect	text9
  2501  0B0F                     __ptext9:	
  2502 ;; *************** function _initLCD *****************
  2503 ;; Defined at:
  2504 ;;		line 9 in file "LCD_Init.c"
  2505 ;; Parameters:    Size  Location     Type
  2506 ;;		None
  2507 ;; Auto vars:     Size  Location     Type
  2508 ;;		None
  2509 ;; Return value:  Size  Location     Type
  2510 ;;                  1    wreg      void 
  2511 ;; Registers used:
  2512 ;;		wreg, status,2, status,0, pclath, cstack
  2513 ;; Tracked objects:
  2514 ;;		On entry : 0/0
  2515 ;;		On exit  : 0/0
  2516 ;;		Unchanged: 0/0
  2517 ;; Data sizes:     COMMON   BANK0   BANK1   BANK3   BANK2
  2518 ;;      Params:         0       0       0       0       0
  2519 ;;      Locals:         0       0       0       0       0
  2520 ;;      Temps:          2       0       0       0       0
  2521 ;;      Totals:         2       0       0       0       0
  2522 ;;Total ram usage:        2 bytes
  2523 ;; Hardware stack levels used:    1
  2524 ;; Hardware stack levels required when called:    1
  2525 ;; This function calls:
  2526 ;;		_lcd_cmd
  2527 ;; This function is called by:
  2528 ;;		_main
  2529 ;; This function uses a non-reentrant model
  2530 ;;
  2531                           
  2532                           
  2533                           ;psect for function _initLCD
  2534  0B0F                     _initLCD:	
  2535  0B0F                     l2079:	
  2536                           ;incstack = 0
  2537                           ; Regs used in _initLCD: [wreg+status,2+status,0+pclath+cstack]
  2538                           
  2539                           
  2540                           ;LCD_Init.c: 10: _delay((unsigned long)((15)*(4000000/4000.0)));
  2541  0B0F  3014               	movlw	20
  2542  0B10  00F4               	movwf	??_initLCD+1
  2543  0B11  3079               	movlw	121
  2544  0B12  00F3               	movwf	??_initLCD
  2545  0B13                     u3627:	
  2546  0B13  0BF3               	decfsz	??_initLCD,f
  2547  0B14  2B13               	goto	u3627
  2548  0B15  0BF4               	decfsz	??_initLCD+1,f
  2549  0B16  2B13               	goto	u3627
  2550  0B17  2B18               	nop2
  2551  0B18                     l2081:	
  2552                           
  2553                           ;LCD_Init.c: 12: lcd_cmd(0x030);
  2554  0B18  3030               	movlw	48
  2555  0B19  120A  158A  2151  120A  158A  	fcall	_lcd_cmd
  2556  0B1E                     l2083:	
  2557                           
  2558                           ;LCD_Init.c: 13: _delay((unsigned long)((5)*(4000000/4000.0)));
  2559  0B1E  3007               	movlw	7
  2560  0B1F  00F4               	movwf	??_initLCD+1
  2561  0B20  307D               	movlw	125
  2562  0B21  00F3               	movwf	??_initLCD
  2563  0B22                     u3637:	
  2564  0B22  0BF3               	decfsz	??_initLCD,f
  2565  0B23  2B22               	goto	u3637
  2566  0B24  0BF4               	decfsz	??_initLCD+1,f
  2567  0B25  2B22               	goto	u3637
  2568                           
  2569                           ;LCD_Init.c: 15: lcd_cmd(0x030);
  2570  0B26  3030               	movlw	48
  2571  0B27  120A  158A  2151  120A  158A  	fcall	_lcd_cmd
  2572  0B2C                     l2085:	
  2573                           
  2574                           ;LCD_Init.c: 16: _delay((unsigned long)((11)*(4000000/4000.0)));
  2575  0B2C  300F               	movlw	15
  2576  0B2D  00F4               	movwf	??_initLCD+1
  2577  0B2E  3047               	movlw	71
  2578  0B2F  00F3               	movwf	??_initLCD
  2579  0B30                     u3647:	
  2580  0B30  0BF3               	decfsz	??_initLCD,f
  2581  0B31  2B30               	goto	u3647
  2582  0B32  0BF4               	decfsz	??_initLCD+1,f
  2583  0B33  2B30               	goto	u3647
  2584  0B34  2B35               	nop2
  2585  0B35                     l2087:	
  2586                           
  2587                           ;LCD_Init.c: 18: lcd_cmd(0x030);
  2588  0B35  3030               	movlw	48
  2589  0B36  120A  158A  2151  120A  158A  	fcall	_lcd_cmd
  2590                           
  2591                           ;LCD_Init.c: 19: _delay((unsigned long)((160)*(4000000/4000000.0)));
  2592  0B3B  3035               	movlw	53
  2593  0B3C  00F3               	movwf	??_initLCD
  2594  0B3D                     u3657:	
  2595  0B3D  0BF3               	decfsz	??_initLCD,f
  2596  0B3E  2B3D               	goto	u3657
  2597  0B3F                     l2089:	
  2598                           
  2599                           ;LCD_Init.c: 21: lcd_cmd(0x38);
  2600  0B3F  3038               	movlw	56
  2601  0B40  120A  158A  2151  120A  158A  	fcall	_lcd_cmd
  2602  0B45                     l2091:	
  2603                           
  2604                           ;LCD_Init.c: 22: lcd_cmd(0x10);
  2605  0B45  3010               	movlw	16
  2606  0B46  120A  158A  2151  120A  158A  	fcall	_lcd_cmd
  2607  0B4B                     l2093:	
  2608                           
  2609                           ;LCD_Init.c: 23: lcd_cmd(0x01);
  2610  0B4B  3001               	movlw	1
  2611  0B4C  120A  158A  2151  120A  158A  	fcall	_lcd_cmd
  2612  0B51                     l2095:	
  2613                           
  2614                           ;LCD_Init.c: 24: lcd_cmd(0x06);
  2615  0B51  3006               	movlw	6
  2616  0B52  120A  158A  2151  120A  158A  	fcall	_lcd_cmd
  2617  0B57                     l2097:	
  2618                           
  2619                           ;LCD_Init.c: 25: lcd_cmd(0x0C);
  2620  0B57  300C               	movlw	12
  2621  0B58  120A  158A  2151  120A  158A  	fcall	_lcd_cmd
  2622  0B5D                     l132:	
  2623  0B5D  0008               	return
  2624  0B5E                     __end_of_initLCD:	
  2625                           
  2626                           	psect	text10
  2627  0951                     __ptext10:	
  2628 ;; *************** function _lcd_cmd *****************
  2629 ;; Defined at:
  2630 ;;		line 30 in file "LCD_Init.c"
  2631 ;; Parameters:    Size  Location     Type
  2632 ;;  command         1    wreg     unsigned char 
  2633 ;; Auto vars:     Size  Location     Type
  2634 ;;  command         1    2[COMMON] unsigned char 
  2635 ;; Return value:  Size  Location     Type
  2636 ;;                  1    wreg      void 
  2637 ;; Registers used:
  2638 ;;		wreg
  2639 ;; Tracked objects:
  2640 ;;		On entry : 0/0
  2641 ;;		On exit  : 0/0
  2642 ;;		Unchanged: 0/0
  2643 ;; Data sizes:     COMMON   BANK0   BANK1   BANK3   BANK2
  2644 ;;      Params:         0       0       0       0       0
  2645 ;;      Locals:         1       0       0       0       0
  2646 ;;      Temps:          2       0       0       0       0
  2647 ;;      Totals:         3       0       0       0       0
  2648 ;;Total ram usage:        3 bytes
  2649 ;; Hardware stack levels used:    1
  2650 ;; This function calls:
  2651 ;;		Nothing
  2652 ;; This function is called by:
  2653 ;;		_initLCD
  2654 ;;		_lcd_clr
  2655 ;;		_lcd_set_cursor
  2656 ;; This function uses a non-reentrant model
  2657 ;;
  2658                           
  2659                           
  2660                           ;psect for function _lcd_cmd
  2661  0951                     _lcd_cmd:	
  2662                           
  2663                           ;incstack = 0
  2664                           ; Regs used in _lcd_cmd: [wreg]
  2665                           ;lcd_cmd@command stored from wreg
  2666  0951  00F2               	movwf	lcd_cmd@command
  2667  0952                     l1777:	
  2668                           
  2669                           ;LCD_Init.c: 31:     PORTBbits.RB6 = 0;
  2670  0952  1283               	bcf	3,5	;RP0=0, select bank0
  2671  0953  1303               	bcf	3,6	;RP1=0, select bank0
  2672  0954  1306               	bcf	6,6	;volatile
  2673  0955                     l1779:	
  2674                           
  2675                           ;LCD_Init.c: 32:     PORTD = command;
  2676  0955  0872               	movf	lcd_cmd@command,w
  2677  0956  0088               	movwf	8	;volatile
  2678  0957                     l1781:	
  2679                           
  2680                           ;LCD_Init.c: 33:     PORTBbits.RB7 = 1;
  2681  0957  1786               	bsf	6,7	;volatile
  2682                           
  2683                           ;LCD_Init.c: 34:     _delay((unsigned long)((4)*(4000000/4000.0)));
  2684  0958  3006               	movlw	6
  2685  0959  00F1               	movwf	??_lcd_cmd+1
  2686  095A  3030               	movlw	48
  2687  095B  00F0               	movwf	??_lcd_cmd
  2688  095C                     u3667:	
  2689  095C  0BF0               	decfsz	??_lcd_cmd,f
  2690  095D  295C               	goto	u3667
  2691  095E  0BF1               	decfsz	??_lcd_cmd+1,f
  2692  095F  295C               	goto	u3667
  2693  0960  0000               	nop
  2694  0961                     l1783:	
  2695                           
  2696                           ;LCD_Init.c: 35:     PORTBbits.RB7 = 0;
  2697  0961  1283               	bcf	3,5	;RP0=0, select bank0
  2698  0962  1303               	bcf	3,6	;RP1=0, select bank0
  2699  0963  1386               	bcf	6,7	;volatile
  2700  0964                     l135:	
  2701  0964  0008               	return
  2702  0965                     __end_of_lcd_cmd:	
  2703                           
  2704                           	psect	text11
  2705  0C3E                     __ptext11:	
  2706 ;; *************** function ___xxtofl *****************
  2707 ;; Defined at:
  2708 ;;		line 10 in file "C:\Program Files (x86)\Microchip\xc8\v2.10\pic\sources\c90\common\xxtofl.c"
  2709 ;; Parameters:    Size  Location     Type
  2710 ;;  sign            1    wreg     unsigned char 
  2711 ;;  val             4    6[COMMON] long 
  2712 ;; Auto vars:     Size  Location     Type
  2713 ;;  sign            1    0[BANK0 ] unsigned char 
  2714 ;;  arg             4    2[BANK0 ] unsigned long 
  2715 ;;  exp             1    1[BANK0 ] unsigned char 
  2716 ;; Return value:  Size  Location     Type
  2717 ;;                  4    6[COMMON] unsigned char 
  2718 ;; Registers used:
  2719 ;;		wreg, status,2, status,0
  2720 ;; Tracked objects:
  2721 ;;		On entry : 0/0
  2722 ;;		On exit  : 0/0
  2723 ;;		Unchanged: 0/0
  2724 ;; Data sizes:     COMMON   BANK0   BANK1   BANK3   BANK2
  2725 ;;      Params:         4       0       0       0       0
  2726 ;;      Locals:         0       6       0       0       0
  2727 ;;      Temps:          4       0       0       0       0
  2728 ;;      Totals:         8       6       0       0       0
  2729 ;;Total ram usage:       14 bytes
  2730 ;; Hardware stack levels used:    1
  2731 ;; This function calls:
  2732 ;;		Nothing
  2733 ;; This function is called by:
  2734 ;;		_main
  2735 ;; This function uses a non-reentrant model
  2736 ;;
  2737                           
  2738                           
  2739                           ;psect for function ___xxtofl
  2740  0C3E                     ___xxtofl:	
  2741                           
  2742                           ;incstack = 0
  2743                           ; Regs used in ___xxtofl: [wreg+status,2+status,0]
  2744                           ;___xxtofl@sign stored from wreg
  2745  0C3E  1283               	bcf	3,5	;RP0=0, select bank0
  2746  0C3F  1303               	bcf	3,6	;RP1=0, select bank0
  2747  0C40  00A0               	movwf	___xxtofl@sign
  2748  0C41                     l2475:	
  2749  0C41  0820               	movf	___xxtofl@sign,w
  2750  0C42  1903               	btfsc	3,2
  2751  0C43  2C45               	goto	u3411
  2752  0C44  2C46               	goto	u3410
  2753  0C45                     u3411:	
  2754  0C45  2C5A               	goto	l2481
  2755  0C46                     u3410:	
  2756  0C46                     l2477:	
  2757  0C46  1FF9               	btfss	___xxtofl@val+3,7
  2758  0C47  2C49               	goto	u3421
  2759  0C48  2C4A               	goto	u3420
  2760  0C49                     u3421:	
  2761  0C49  2C5A               	goto	l2481
  2762  0C4A                     u3420:	
  2763  0C4A                     l2479:	
  2764  0C4A  0976               	comf	___xxtofl@val,w
  2765  0C4B  00A2               	movwf	___xxtofl@arg
  2766  0C4C  0977               	comf	___xxtofl@val+1,w
  2767  0C4D  00A3               	movwf	___xxtofl@arg+1
  2768  0C4E  0978               	comf	___xxtofl@val+2,w
  2769  0C4F  00A4               	movwf	___xxtofl@arg+2
  2770  0C50  0979               	comf	___xxtofl@val+3,w
  2771  0C51  00A5               	movwf	___xxtofl@arg+3
  2772  0C52  0AA2               	incf	___xxtofl@arg,f
  2773  0C53  1903               	skipnz
  2774  0C54  0AA3               	incf	___xxtofl@arg+1,f
  2775  0C55  1903               	skipnz
  2776  0C56  0AA4               	incf	___xxtofl@arg+2,f
  2777  0C57  1903               	skipnz
  2778  0C58  0AA5               	incf	___xxtofl@arg+3,f
  2779  0C59  2C62               	goto	l696
  2780  0C5A                     l2481:	
  2781  0C5A  0879               	movf	___xxtofl@val+3,w
  2782  0C5B  00A5               	movwf	___xxtofl@arg+3
  2783  0C5C  0878               	movf	___xxtofl@val+2,w
  2784  0C5D  00A4               	movwf	___xxtofl@arg+2
  2785  0C5E  0877               	movf	___xxtofl@val+1,w
  2786  0C5F  00A3               	movwf	___xxtofl@arg+1
  2787  0C60  0876               	movf	___xxtofl@val,w
  2788  0C61  00A2               	movwf	___xxtofl@arg
  2789  0C62                     l696:	
  2790  0C62  0879               	movf	___xxtofl@val+3,w
  2791  0C63  0478               	iorwf	___xxtofl@val+2,w
  2792  0C64  0477               	iorwf	___xxtofl@val+1,w
  2793  0C65  0476               	iorwf	___xxtofl@val,w
  2794  0C66  1D03               	skipz
  2795  0C67  2C69               	goto	u3431
  2796  0C68  2C6A               	goto	u3430
  2797  0C69                     u3431:	
  2798  0C69  2C73               	goto	l2487
  2799  0C6A                     u3430:	
  2800  0C6A                     l2483:	
  2801  0C6A  3000               	movlw	0
  2802  0C6B  00F9               	movwf	?___xxtofl+3
  2803  0C6C  3000               	movlw	0
  2804  0C6D  00F8               	movwf	?___xxtofl+2
  2805  0C6E  3000               	movlw	0
  2806  0C6F  00F7               	movwf	?___xxtofl+1
  2807  0C70  3000               	movlw	0
  2808  0C71  00F6               	movwf	?___xxtofl
  2809  0C72  2CF9               	goto	l698
  2810  0C73                     l2487:	
  2811  0C73  3096               	movlw	150
  2812  0C74  00FA               	movwf	??___xxtofl
  2813  0C75  087A               	movf	??___xxtofl,w
  2814  0C76  00A1               	movwf	___xxtofl@exp
  2815  0C77  2C85               	goto	l2491
  2816  0C78                     l2489:	
  2817  0C78  3001               	movlw	1
  2818  0C79  00FA               	movwf	??___xxtofl
  2819  0C7A  087A               	movf	??___xxtofl,w
  2820  0C7B  07A1               	addwf	___xxtofl@exp,f
  2821  0C7C  3001               	movlw	1
  2822  0C7D                     u3445:	
  2823  0C7D  1003               	clrc
  2824  0C7E  0CA5               	rrf	___xxtofl@arg+3,f
  2825  0C7F  0CA4               	rrf	___xxtofl@arg+2,f
  2826  0C80  0CA3               	rrf	___xxtofl@arg+1,f
  2827  0C81  0CA2               	rrf	___xxtofl@arg,f
  2828  0C82  3EFF               	addlw	-1
  2829  0C83  1D03               	skipz
  2830  0C84  2C7D               	goto	u3445
  2831  0C85                     l2491:	
  2832  0C85  30FE               	movlw	254
  2833  0C86  0525               	andwf	___xxtofl@arg+3,w
  2834  0C87  1D03               	btfss	3,2
  2835  0C88  2C8A               	goto	u3451
  2836  0C89  2C8B               	goto	u3450
  2837  0C8A                     u3451:	
  2838  0C8A  2C78               	goto	l2489
  2839  0C8B                     u3450:	
  2840  0C8B  2CA7               	goto	l702
  2841  0C8C                     l2493:	
  2842  0C8C  3001               	movlw	1
  2843  0C8D  00FA               	movwf	??___xxtofl
  2844  0C8E  087A               	movf	??___xxtofl,w
  2845  0C8F  07A1               	addwf	___xxtofl@exp,f
  2846  0C90                     l2495:	
  2847  0C90  3001               	movlw	1
  2848  0C91  07A2               	addwf	___xxtofl@arg,f
  2849  0C92  3000               	movlw	0
  2850  0C93  1803               	skipnc
  2851  0C94  3001               	movlw	1
  2852  0C95  07A3               	addwf	___xxtofl@arg+1,f
  2853  0C96  3000               	movlw	0
  2854  0C97  1803               	skipnc
  2855  0C98  3001               	movlw	1
  2856  0C99  07A4               	addwf	___xxtofl@arg+2,f
  2857  0C9A  3000               	movlw	0
  2858  0C9B  1803               	skipnc
  2859  0C9C  3001               	movlw	1
  2860  0C9D  07A5               	addwf	___xxtofl@arg+3,f
  2861  0C9E                     l2497:	
  2862  0C9E  3001               	movlw	1
  2863  0C9F                     u3465:	
  2864  0C9F  1003               	clrc
  2865  0CA0  0CA5               	rrf	___xxtofl@arg+3,f
  2866  0CA1  0CA4               	rrf	___xxtofl@arg+2,f
  2867  0CA2  0CA3               	rrf	___xxtofl@arg+1,f
  2868  0CA3  0CA2               	rrf	___xxtofl@arg,f
  2869  0CA4  3EFF               	addlw	-1
  2870  0CA5  1D03               	skipz
  2871  0CA6  2C9F               	goto	u3465
  2872  0CA7                     l702:	
  2873  0CA7  30FF               	movlw	255
  2874  0CA8  0525               	andwf	___xxtofl@arg+3,w
  2875  0CA9  1D03               	btfss	3,2
  2876  0CAA  2CAC               	goto	u3471
  2877  0CAB  2CAD               	goto	u3470
  2878  0CAC                     u3471:	
  2879  0CAC  2C8C               	goto	l2493
  2880  0CAD                     u3470:	
  2881  0CAD  2CB9               	goto	l2501
  2882  0CAE                     l2499:	
  2883  0CAE  3001               	movlw	1
  2884  0CAF  02A1               	subwf	___xxtofl@exp,f
  2885  0CB0  3001               	movlw	1
  2886  0CB1  00FA               	movwf	??___xxtofl
  2887  0CB2                     u3485:	
  2888  0CB2  1003               	clrc
  2889  0CB3  0DA2               	rlf	___xxtofl@arg,f
  2890  0CB4  0DA3               	rlf	___xxtofl@arg+1,f
  2891  0CB5  0DA4               	rlf	___xxtofl@arg+2,f
  2892  0CB6  0DA5               	rlf	___xxtofl@arg+3,f
  2893  0CB7  0BFA               	decfsz	??___xxtofl,f
  2894  0CB8  2CB2               	goto	u3485
  2895  0CB9                     l2501:	
  2896  0CB9  1BA4               	btfsc	___xxtofl@arg+2,7
  2897  0CBA  2CBC               	goto	u3491
  2898  0CBB  2CBD               	goto	u3490
  2899  0CBC                     u3491:	
  2900  0CBC  2CC3               	goto	l709
  2901  0CBD                     u3490:	
  2902  0CBD                     l2503:	
  2903  0CBD  3002               	movlw	2
  2904  0CBE  0221               	subwf	___xxtofl@exp,w
  2905  0CBF  1803               	skipnc
  2906  0CC0  2CC2               	goto	u3501
  2907  0CC1  2CC3               	goto	u3500
  2908  0CC2                     u3501:	
  2909  0CC2  2CAE               	goto	l2499
  2910  0CC3                     u3500:	
  2911  0CC3                     l709:	
  2912  0CC3  1821               	btfsc	___xxtofl@exp,0
  2913  0CC4  2CC6               	goto	u3511
  2914  0CC5  2CC7               	goto	u3510
  2915  0CC6                     u3511:	
  2916  0CC6  2CCF               	goto	l710
  2917  0CC7                     u3510:	
  2918  0CC7                     l2505:	
  2919  0CC7  30FF               	movlw	255
  2920  0CC8  05A2               	andwf	___xxtofl@arg,f
  2921  0CC9  30FF               	movlw	255
  2922  0CCA  05A3               	andwf	___xxtofl@arg+1,f
  2923  0CCB  307F               	movlw	127
  2924  0CCC  05A4               	andwf	___xxtofl@arg+2,f
  2925  0CCD  30FF               	movlw	255
  2926  0CCE  05A5               	andwf	___xxtofl@arg+3,f
  2927  0CCF                     l710:	
  2928  0CCF  1003               	clrc
  2929  0CD0  0CA1               	rrf	___xxtofl@exp,f
  2930  0CD1                     l2507:	
  2931  0CD1  0821               	movf	___xxtofl@exp,w
  2932  0CD2  00FA               	movwf	??___xxtofl
  2933  0CD3  01FB               	clrf	??___xxtofl+1
  2934  0CD4  01FC               	clrf	??___xxtofl+2
  2935  0CD5  01FD               	clrf	??___xxtofl+3
  2936  0CD6  3018               	movlw	24
  2937  0CD7                     u3525:	
  2938  0CD7  1003               	clrc
  2939  0CD8  0DFA               	rlf	??___xxtofl,f
  2940  0CD9  0DFB               	rlf	??___xxtofl+1,f
  2941  0CDA  0DFC               	rlf	??___xxtofl+2,f
  2942  0CDB  0DFD               	rlf	??___xxtofl+3,f
  2943  0CDC                     u3520:	
  2944  0CDC  3EFF               	addlw	-1
  2945  0CDD  1D03               	skipz
  2946  0CDE  2CD7               	goto	u3525
  2947  0CDF  087A               	movf	??___xxtofl,w
  2948  0CE0  04A2               	iorwf	___xxtofl@arg,f
  2949  0CE1  087B               	movf	??___xxtofl+1,w
  2950  0CE2  04A3               	iorwf	___xxtofl@arg+1,f
  2951  0CE3  087C               	movf	??___xxtofl+2,w
  2952  0CE4  04A4               	iorwf	___xxtofl@arg+2,f
  2953  0CE5  087D               	movf	??___xxtofl+3,w
  2954  0CE6  04A5               	iorwf	___xxtofl@arg+3,f
  2955  0CE7                     l2509:	
  2956  0CE7  0820               	movf	___xxtofl@sign,w
  2957  0CE8  1903               	btfsc	3,2
  2958  0CE9  2CEB               	goto	u3531
  2959  0CEA  2CEC               	goto	u3530
  2960  0CEB                     u3531:	
  2961  0CEB  2CF1               	goto	l2515
  2962  0CEC                     u3530:	
  2963  0CEC                     l2511:	
  2964  0CEC  1FF9               	btfss	___xxtofl@val+3,7
  2965  0CED  2CEF               	goto	u3541
  2966  0CEE  2CF0               	goto	u3540
  2967  0CEF                     u3541:	
  2968  0CEF  2CF1               	goto	l2515
  2969  0CF0                     u3540:	
  2970  0CF0                     l2513:	
  2971  0CF0  17A5               	bsf	___xxtofl@arg+3,7
  2972  0CF1                     l2515:	
  2973  0CF1  0825               	movf	___xxtofl@arg+3,w
  2974  0CF2  00F9               	movwf	?___xxtofl+3
  2975  0CF3  0824               	movf	___xxtofl@arg+2,w
  2976  0CF4  00F8               	movwf	?___xxtofl+2
  2977  0CF5  0823               	movf	___xxtofl@arg+1,w
  2978  0CF6  00F7               	movwf	?___xxtofl+1
  2979  0CF7  0822               	movf	___xxtofl@arg,w
  2980  0CF8  00F6               	movwf	?___xxtofl
  2981  0CF9                     l698:	
  2982  0CF9  0008               	return
  2983  0CFA                     __end_of___xxtofl:	
  2984                           
  2985                           	psect	text12
  2986  0BC4                     __ptext12:	
  2987 ;; *************** function ___fltol *****************
  2988 ;; Defined at:
  2989 ;;		line 43 in file "C:\Program Files (x86)\Microchip\xc8\v2.10\pic\sources\c90\common\fltol.c"
  2990 ;; Parameters:    Size  Location     Type
  2991 ;;  f1              4    0[COMMON] unsigned char 
  2992 ;; Auto vars:     Size  Location     Type
  2993 ;;  exp1            1   10[COMMON] unsigned char 
  2994 ;;  sign1           1    9[COMMON] unsigned char 
  2995 ;; Return value:  Size  Location     Type
  2996 ;;                  4    0[COMMON] long 
  2997 ;; Registers used:
  2998 ;;		wreg, status,2, status,0
  2999 ;; Tracked objects:
  3000 ;;		On entry : 0/0
  3001 ;;		On exit  : 0/0
  3002 ;;		Unchanged: 0/0
  3003 ;; Data sizes:     COMMON   BANK0   BANK1   BANK3   BANK2
  3004 ;;      Params:         4       0       0       0       0
  3005 ;;      Locals:         2       0       0       0       0
  3006 ;;      Temps:          5       0       0       0       0
  3007 ;;      Totals:        11       0       0       0       0
  3008 ;;Total ram usage:       11 bytes
  3009 ;; Hardware stack levels used:    1
  3010 ;; This function calls:
  3011 ;;		Nothing
  3012 ;; This function is called by:
  3013 ;;		_main
  3014 ;; This function uses a non-reentrant model
  3015 ;;
  3016                           
  3017                           
  3018                           ;psect for function ___fltol
  3019  0BC4                     ___fltol:	
  3020  0BC4                     l2151:	
  3021                           ;incstack = 0
  3022                           ; Regs used in ___fltol: [wreg+status,2+status,0]
  3023                           
  3024  0BC4  1003               	clrc
  3025  0BC5  0D72               	rlf	___fltol@f1+2,w
  3026  0BC6  0D73               	rlf	___fltol@f1+3,w
  3027  0BC7  00F4               	movwf	??___fltol
  3028  0BC8  0874               	movf	??___fltol,w
  3029  0BC9  00FA               	movwf	___fltol@exp1
  3030  0BCA  087A               	movf	___fltol@exp1,w
  3031  0BCB  1D03               	btfss	3,2
  3032  0BCC  2BCE               	goto	u2651
  3033  0BCD  2BCF               	goto	u2650
  3034  0BCE                     u2651:	
  3035  0BCE  2BD8               	goto	l2157
  3036  0BCF                     u2650:	
  3037  0BCF                     l2153:	
  3038  0BCF  3000               	movlw	0
  3039  0BD0  00F3               	movwf	?___fltol+3
  3040  0BD1  3000               	movlw	0
  3041  0BD2  00F2               	movwf	?___fltol+2
  3042  0BD3  3000               	movlw	0
  3043  0BD4  00F1               	movwf	?___fltol+1
  3044  0BD5  3000               	movlw	0
  3045  0BD6  00F0               	movwf	?___fltol
  3046  0BD7  2C3D               	goto	l455
  3047  0BD8                     l2157:	
  3048  0BD8  0870               	movf	___fltol@f1,w
  3049  0BD9  00F4               	movwf	??___fltol
  3050  0BDA  0871               	movf	___fltol@f1+1,w
  3051  0BDB  00F5               	movwf	??___fltol+1
  3052  0BDC  0872               	movf	___fltol@f1+2,w
  3053  0BDD  00F6               	movwf	??___fltol+2
  3054  0BDE  0873               	movf	___fltol@f1+3,w
  3055  0BDF  00F7               	movwf	??___fltol+3
  3056  0BE0  301F               	movlw	31
  3057  0BE1                     u2665:	
  3058  0BE1  1003               	clrc
  3059  0BE2  0CF7               	rrf	??___fltol+3,f
  3060  0BE3  0CF6               	rrf	??___fltol+2,f
  3061  0BE4  0CF5               	rrf	??___fltol+1,f
  3062  0BE5  0CF4               	rrf	??___fltol,f
  3063  0BE6                     u2660:	
  3064  0BE6  3EFF               	addlw	-1
  3065  0BE7  1D03               	skipz
  3066  0BE8  2BE1               	goto	u2665
  3067  0BE9  0874               	movf	??___fltol,w
  3068  0BEA  00F8               	movwf	??___fltol+4
  3069  0BEB  0878               	movf	??___fltol+4,w
  3070  0BEC  00F9               	movwf	___fltol@sign1
  3071  0BED                     l2159:	
  3072  0BED  17F2               	bsf	___fltol@f1+2,7
  3073  0BEE                     l2161:	
  3074  0BEE  30FF               	movlw	255
  3075  0BEF  05F0               	andwf	___fltol@f1,f
  3076  0BF0  30FF               	movlw	255
  3077  0BF1  05F1               	andwf	___fltol@f1+1,f
  3078  0BF2  30FF               	movlw	255
  3079  0BF3  05F2               	andwf	___fltol@f1+2,f
  3080  0BF4  3000               	movlw	0
  3081  0BF5  05F3               	andwf	___fltol@f1+3,f
  3082  0BF6                     l2163:	
  3083  0BF6  3096               	movlw	150
  3084  0BF7  02FA               	subwf	___fltol@exp1,f
  3085  0BF8                     l2165:	
  3086  0BF8  1FFA               	btfss	___fltol@exp1,7
  3087  0BF9  2BFB               	goto	u2671
  3088  0BFA  2BFC               	goto	u2670
  3089  0BFB                     u2671:	
  3090  0BFB  2C16               	goto	l2175
  3091  0BFC                     u2670:	
  3092  0BFC                     l2167:	
  3093  0BFC  087A               	movf	___fltol@exp1,w
  3094  0BFD  3A80               	xorlw	128
  3095  0BFE  3E97               	addlw	151
  3096  0BFF  1803               	skipnc
  3097  0C00  2C02               	goto	u2681
  3098  0C01  2C03               	goto	u2680
  3099  0C02                     u2681:	
  3100  0C02  2C04               	goto	l2173
  3101  0C03                     u2680:	
  3102  0C03  2BCF               	goto	l2153
  3103  0C04                     l2173:	
  3104  0C04  3001               	movlw	1
  3105  0C05                     u2695:	
  3106  0C05  1003               	clrc
  3107  0C06  0CF3               	rrf	___fltol@f1+3,f
  3108  0C07  0CF2               	rrf	___fltol@f1+2,f
  3109  0C08  0CF1               	rrf	___fltol@f1+1,f
  3110  0C09  0CF0               	rrf	___fltol@f1,f
  3111  0C0A  3EFF               	addlw	-1
  3112  0C0B  1D03               	skipz
  3113  0C0C  2C05               	goto	u2695
  3114  0C0D  3001               	movlw	1
  3115  0C0E  00F4               	movwf	??___fltol
  3116  0C0F  0874               	movf	??___fltol,w
  3117  0C10  07FA               	addwf	___fltol@exp1,f
  3118  0C11  1D03               	btfss	3,2
  3119  0C12  2C14               	goto	u2701
  3120  0C13  2C15               	goto	u2700
  3121  0C14                     u2701:	
  3122  0C14  2C04               	goto	l2173
  3123  0C15                     u2700:	
  3124  0C15  2C2D               	goto	l2183
  3125  0C16                     l2175:	
  3126  0C16  3020               	movlw	32
  3127  0C17  027A               	subwf	___fltol@exp1,w
  3128  0C18  1C03               	skipc
  3129  0C19  2C1B               	goto	u2711
  3130  0C1A  2C1C               	goto	u2710
  3131  0C1B                     u2711:	
  3132  0C1B  2C28               	goto	l462
  3133  0C1C                     u2710:	
  3134  0C1C  2BCF               	goto	l2153
  3135  0C1D                     l2181:	
  3136  0C1D  3001               	movlw	1
  3137  0C1E  00F4               	movwf	??___fltol
  3138  0C1F                     u2725:	
  3139  0C1F  1003               	clrc
  3140  0C20  0DF0               	rlf	___fltol@f1,f
  3141  0C21  0DF1               	rlf	___fltol@f1+1,f
  3142  0C22  0DF2               	rlf	___fltol@f1+2,f
  3143  0C23  0DF3               	rlf	___fltol@f1+3,f
  3144  0C24  0BF4               	decfsz	??___fltol,f
  3145  0C25  2C1F               	goto	u2725
  3146  0C26  3001               	movlw	1
  3147  0C27  02FA               	subwf	___fltol@exp1,f
  3148  0C28                     l462:	
  3149  0C28  087A               	movf	___fltol@exp1,w
  3150  0C29  1D03               	btfss	3,2
  3151  0C2A  2C2C               	goto	u2731
  3152  0C2B  2C2D               	goto	u2730
  3153  0C2C                     u2731:	
  3154  0C2C  2C1D               	goto	l2181
  3155  0C2D                     u2730:	
  3156  0C2D                     l2183:	
  3157  0C2D  0879               	movf	___fltol@sign1,w
  3158  0C2E  1903               	btfsc	3,2
  3159  0C2F  2C31               	goto	u2741
  3160  0C30  2C32               	goto	u2740
  3161  0C31                     u2741:	
  3162  0C31  2C3D               	goto	l465
  3163  0C32                     u2740:	
  3164  0C32                     l2185:	
  3165  0C32  09F0               	comf	___fltol@f1,f
  3166  0C33  09F1               	comf	___fltol@f1+1,f
  3167  0C34  09F2               	comf	___fltol@f1+2,f
  3168  0C35  09F3               	comf	___fltol@f1+3,f
  3169  0C36  0AF0               	incf	___fltol@f1,f
  3170  0C37  1903               	skipnz
  3171  0C38  0AF1               	incf	___fltol@f1+1,f
  3172  0C39  1903               	skipnz
  3173  0C3A  0AF2               	incf	___fltol@f1+2,f
  3174  0C3B  1903               	skipnz
  3175  0C3C  0AF3               	incf	___fltol@f1+3,f
  3176  0C3D                     l465:	
  3177  0C3D                     l455:	
  3178  0C3D  0008               	return
  3179  0C3E                     __end_of___fltol:	
  3180                           
  3181                           	psect	text13
  3182  099E                     __ptext13:	
  3183 ;; *************** function ___flsub *****************
  3184 ;; Defined at:
  3185 ;;		line 242 in file "C:\Program Files (x86)\Microchip\xc8\v2.10\pic\sources\c90\common\sprcadd.c"
  3186 ;; Parameters:    Size  Location     Type
  3187 ;;  a               4    8[BANK0 ] long 
  3188 ;;  b               4   12[BANK0 ] long 
  3189 ;; Auto vars:     Size  Location     Type
  3190 ;;		None
  3191 ;; Return value:  Size  Location     Type
  3192 ;;                  4    8[BANK0 ] long 
  3193 ;; Registers used:
  3194 ;;		wreg, status,2, status,0, btemp+1, pclath, cstack
  3195 ;; Tracked objects:
  3196 ;;		On entry : 0/0
  3197 ;;		On exit  : 0/0
  3198 ;;		Unchanged: 0/0
  3199 ;; Data sizes:     COMMON   BANK0   BANK1   BANK3   BANK2
  3200 ;;      Params:         0       8       0       0       0
  3201 ;;      Locals:         0       0       0       0       0
  3202 ;;      Temps:          0       0       0       0       0
  3203 ;;      Totals:         0       8       0       0       0
  3204 ;;Total ram usage:        8 bytes
  3205 ;; Hardware stack levels used:    1
  3206 ;; Hardware stack levels required when called:    1
  3207 ;; This function calls:
  3208 ;;		___fladd
  3209 ;; This function is called by:
  3210 ;;		_main
  3211 ;; This function uses a non-reentrant model
  3212 ;;
  3213                           
  3214                           
  3215                           ;psect for function ___flsub
  3216  099E                     ___flsub:	
  3217  099E                     l2187:	
  3218                           ;incstack = 0
  3219                           ; Regs used in ___flsub: [wreg+status,2+status,0+btemp+1+pclath+cstack]
  3220                           
  3221  099E  3080               	movlw	128
  3222  099F  1283               	bcf	3,5	;RP0=0, select bank0
  3223  09A0  1303               	bcf	3,6	;RP1=0, select bank0
  3224  09A1  06AB               	xorwf	___flsub@a+3,f
  3225  09A2                     l2189:	
  3226  09A2  082F               	movf	___flsub@b+3,w
  3227  09A3  00F3               	movwf	___fladd@b+3
  3228  09A4  082E               	movf	___flsub@b+2,w
  3229  09A5  00F2               	movwf	___fladd@b+2
  3230  09A6  082D               	movf	___flsub@b+1,w
  3231  09A7  00F1               	movwf	___fladd@b+1
  3232  09A8  082C               	movf	___flsub@b,w
  3233  09A9  00F0               	movwf	___fladd@b
  3234  09AA  082B               	movf	___flsub@a+3,w
  3235  09AB  00F7               	movwf	___fladd@a+3
  3236  09AC  082A               	movf	___flsub@a+2,w
  3237  09AD  00F6               	movwf	___fladd@a+2
  3238  09AE  0829               	movf	___flsub@a+1,w
  3239  09AF  00F5               	movwf	___fladd@a+1
  3240  09B0  0828               	movf	___flsub@a,w
  3241  09B1  00F4               	movwf	___fladd@a
  3242  09B2  120A  118A  21F4  120A  158A  	fcall	___fladd
  3243  09B7  0873               	movf	?___fladd+3,w
  3244  09B8  1283               	bcf	3,5	;RP0=0, select bank0
  3245  09B9  1303               	bcf	3,6	;RP1=0, select bank0
  3246  09BA  00AB               	movwf	?___flsub+3
  3247  09BB  0872               	movf	?___fladd+2,w
  3248  09BC  00AA               	movwf	?___flsub+2
  3249  09BD  0871               	movf	?___fladd+1,w
  3250  09BE  00A9               	movwf	?___flsub+1
  3251  09BF  0870               	movf	?___fladd,w
  3252  09C0  00A8               	movwf	?___flsub
  3253  09C1                     l608:	
  3254  09C1  0008               	return
  3255  09C2                     __end_of___flsub:	
  3256                           
  3257                           	psect	text14
  3258  01F4                     __ptext14:	
  3259 ;; *************** function ___fladd *****************
  3260 ;; Defined at:
  3261 ;;		line 10 in file "C:\Program Files (x86)\Microchip\xc8\v2.10\pic\sources\c90\common\sprcadd.c"
  3262 ;; Parameters:    Size  Location     Type
  3263 ;;  b               4    0[COMMON] long 
  3264 ;;  a               4    4[COMMON] long 
  3265 ;; Auto vars:     Size  Location     Type
  3266 ;;  grs             1   11[COMMON] unsigned char 
  3267 ;;  bexp            1   10[COMMON] unsigned char 
  3268 ;;  aexp            1    9[COMMON] unsigned char 
  3269 ;;  signs           1    8[COMMON] unsigned char 
  3270 ;; Return value:  Size  Location     Type
  3271 ;;                  4    0[COMMON] unsigned char 
  3272 ;; Registers used:
  3273 ;;		wreg, status,2, status,0, btemp+1
  3274 ;; Tracked objects:
  3275 ;;		On entry : 0/0
  3276 ;;		On exit  : 0/0
  3277 ;;		Unchanged: 0/0
  3278 ;; Data sizes:     COMMON   BANK0   BANK1   BANK3   BANK2
  3279 ;;      Params:         8       0       0       0       0
  3280 ;;      Locals:         4       0       0       0       0
  3281 ;;      Temps:          0       8       0       0       0
  3282 ;;      Totals:        12       8       0       0       0
  3283 ;;Total ram usage:       20 bytes
  3284 ;; Hardware stack levels used:    1
  3285 ;; This function calls:
  3286 ;;		Nothing
  3287 ;; This function is called by:
  3288 ;;		___flsub
  3289 ;; This function uses a non-reentrant model
  3290 ;;
  3291                           
  3292                           
  3293                           ;psect for function ___fladd
  3294  01F4                     ___fladd:	
  3295  01F4                     l1871:	
  3296                           ;incstack = 0
  3297                           ; Regs used in ___fladd: [wreg+status,2+status,0+btemp+1]
  3298                           
  3299  01F4  0873               	movf	___fladd@b+3,w
  3300  01F5  3980               	andlw	128
  3301  01F6  1283               	bcf	3,5	;RP0=0, select bank0
  3302  01F7  1303               	bcf	3,6	;RP1=0, select bank0
  3303  01F8  00A0               	movwf	??___fladd
  3304  01F9  0820               	movf	??___fladd,w
  3305  01FA  00F8               	movwf	___fladd@signs
  3306  01FB                     l1873:	
  3307  01FB  0873               	movf	___fladd@b+3,w
  3308  01FC  00A0               	movwf	??___fladd
  3309  01FD  0720               	addwf	??___fladd,w
  3310  01FE  00A1               	movwf	??___fladd+1
  3311  01FF  0821               	movf	??___fladd+1,w
  3312  0200  00FA               	movwf	___fladd@bexp
  3313  0201                     l1875:	
  3314  0201  1FF2               	btfss	___fladd@b+2,7
  3315  0202  2A04               	goto	u2121
  3316  0203  2A05               	goto	u2120
  3317  0204                     u2121:	
  3318  0204  2A06               	goto	l1879
  3319  0205                     u2120:	
  3320  0205                     l1877:	
  3321  0205  147A               	bsf	___fladd@bexp,0
  3322  0206                     l1879:	
  3323  0206  087A               	movf	___fladd@bexp,w
  3324  0207  1903               	btfsc	3,2
  3325  0208  2A0A               	goto	u2131
  3326  0209  2A0B               	goto	u2130
  3327  020A                     u2131:	
  3328  020A  2A1B               	goto	l1889
  3329  020B                     u2130:	
  3330  020B                     l1881:	
  3331  020B  0A7A               	incf	___fladd@bexp,w
  3332  020C  1D03               	btfss	3,2
  3333  020D  2A0F               	goto	u2141
  3334  020E  2A10               	goto	u2140
  3335  020F                     u2141:	
  3336  020F  2A18               	goto	l1885
  3337  0210                     u2140:	
  3338  0210                     l1883:	
  3339  0210  3000               	movlw	0
  3340  0211  00F3               	movwf	___fladd@b+3
  3341  0212  3000               	movlw	0
  3342  0213  00F2               	movwf	___fladd@b+2
  3343  0214  3000               	movlw	0
  3344  0215  00F1               	movwf	___fladd@b+1
  3345  0216  3000               	movlw	0
  3346  0217  00F0               	movwf	___fladd@b
  3347  0218                     l1885:	
  3348  0218  17F2               	bsf	___fladd@b+2,7
  3349  0219                     l1887:	
  3350  0219  01F3               	clrf	___fladd@b+3
  3351  021A  2A23               	goto	l1891
  3352  021B                     l1889:	
  3353  021B  3000               	movlw	0
  3354  021C  00F3               	movwf	___fladd@b+3
  3355  021D  3000               	movlw	0
  3356  021E  00F2               	movwf	___fladd@b+2
  3357  021F  3000               	movlw	0
  3358  0220  00F1               	movwf	___fladd@b+1
  3359  0221  3000               	movlw	0
  3360  0222  00F0               	movwf	___fladd@b
  3361  0223                     l1891:	
  3362  0223  0877               	movf	___fladd@a+3,w
  3363  0224  3980               	andlw	128
  3364  0225  00A0               	movwf	??___fladd
  3365  0226  0820               	movf	??___fladd,w
  3366  0227  00F9               	movwf	___fladd@aexp
  3367  0228                     l1893:	
  3368  0228  0879               	movf	___fladd@aexp,w
  3369  0229  0678               	xorwf	___fladd@signs,w
  3370  022A  1903               	skipnz
  3371  022B  2A2D               	goto	u2151
  3372  022C  2A2E               	goto	u2150
  3373  022D                     u2151:	
  3374  022D  2A2F               	goto	l1897
  3375  022E                     u2150:	
  3376  022E                     l1895:	
  3377  022E  1778               	bsf	___fladd@signs,6
  3378  022F                     l1897:	
  3379  022F  0877               	movf	___fladd@a+3,w
  3380  0230  00A0               	movwf	??___fladd
  3381  0231  0720               	addwf	??___fladd,w
  3382  0232  00A1               	movwf	??___fladd+1
  3383  0233  0821               	movf	??___fladd+1,w
  3384  0234  00F9               	movwf	___fladd@aexp
  3385  0235                     l1899:	
  3386  0235  1FF6               	btfss	___fladd@a+2,7
  3387  0236  2A38               	goto	u2161
  3388  0237  2A39               	goto	u2160
  3389  0238                     u2161:	
  3390  0238  2A3A               	goto	l1903
  3391  0239                     u2160:	
  3392  0239                     l1901:	
  3393  0239  1479               	bsf	___fladd@aexp,0
  3394  023A                     l1903:	
  3395  023A  0879               	movf	___fladd@aexp,w
  3396  023B  1903               	btfsc	3,2
  3397  023C  2A3E               	goto	u2171
  3398  023D  2A3F               	goto	u2170
  3399  023E                     u2171:	
  3400  023E  2A4F               	goto	l1913
  3401  023F                     u2170:	
  3402  023F                     l1905:	
  3403  023F  0A79               	incf	___fladd@aexp,w
  3404  0240  1D03               	btfss	3,2
  3405  0241  2A43               	goto	u2181
  3406  0242  2A44               	goto	u2180
  3407  0243                     u2181:	
  3408  0243  2A4C               	goto	l1909
  3409  0244                     u2180:	
  3410  0244                     l1907:	
  3411  0244  3000               	movlw	0
  3412  0245  00F7               	movwf	___fladd@a+3
  3413  0246  3000               	movlw	0
  3414  0247  00F6               	movwf	___fladd@a+2
  3415  0248  3000               	movlw	0
  3416  0249  00F5               	movwf	___fladd@a+1
  3417  024A  3000               	movlw	0
  3418  024B  00F4               	movwf	___fladd@a
  3419  024C                     l1909:	
  3420  024C  17F6               	bsf	___fladd@a+2,7
  3421  024D                     l1911:	
  3422  024D  01F7               	clrf	___fladd@a+3
  3423  024E  2A57               	goto	l562
  3424  024F                     l1913:	
  3425  024F  3000               	movlw	0
  3426  0250  00F7               	movwf	___fladd@a+3
  3427  0251  3000               	movlw	0
  3428  0252  00F6               	movwf	___fladd@a+2
  3429  0253  3000               	movlw	0
  3430  0254  00F5               	movwf	___fladd@a+1
  3431  0255  3000               	movlw	0
  3432  0256  00F4               	movwf	___fladd@a
  3433  0257                     l562:	
  3434  0257  087A               	movf	___fladd@bexp,w
  3435  0258  0279               	subwf	___fladd@aexp,w
  3436  0259  1803               	skipnc
  3437  025A  2A5C               	goto	u2191
  3438  025B  2A5D               	goto	u2190
  3439  025C                     u2191:	
  3440  025C  2AA1               	goto	l1949
  3441  025D                     u2190:	
  3442  025D                     l1915:	
  3443  025D  1F78               	btfss	___fladd@signs,6
  3444  025E  2A60               	goto	u2201
  3445  025F  2A61               	goto	u2200
  3446  0260                     u2201:	
  3447  0260  2A65               	goto	l1919
  3448  0261                     u2200:	
  3449  0261                     l1917:	
  3450  0261  3080               	movlw	128
  3451  0262  00A0               	movwf	??___fladd
  3452  0263  0820               	movf	??___fladd,w
  3453  0264  06F8               	xorwf	___fladd@signs,f
  3454  0265                     l1919:	
  3455  0265  087A               	movf	___fladd@bexp,w
  3456  0266  00A0               	movwf	??___fladd
  3457  0267  0820               	movf	??___fladd,w
  3458  0268  00FB               	movwf	___fladd@grs
  3459  0269                     l1921:	
  3460  0269  0879               	movf	___fladd@aexp,w
  3461  026A  00A0               	movwf	??___fladd
  3462  026B  0820               	movf	??___fladd,w
  3463  026C  00FA               	movwf	___fladd@bexp
  3464  026D                     l1923:	
  3465  026D  087B               	movf	___fladd@grs,w
  3466  026E  00A0               	movwf	??___fladd
  3467  026F  0820               	movf	??___fladd,w
  3468  0270  00F9               	movwf	___fladd@aexp
  3469  0271                     l1925:	
  3470  0271  0870               	movf	___fladd@b,w
  3471  0272  00A0               	movwf	??___fladd
  3472  0273  0820               	movf	??___fladd,w
  3473  0274  00FB               	movwf	___fladd@grs
  3474  0275                     l1927:	
  3475  0275  0874               	movf	___fladd@a,w
  3476  0276  00A0               	movwf	??___fladd
  3477  0277  0820               	movf	??___fladd,w
  3478  0278  00F0               	movwf	___fladd@b
  3479  0279                     l1929:	
  3480  0279  087B               	movf	___fladd@grs,w
  3481  027A  00A0               	movwf	??___fladd
  3482  027B  0820               	movf	??___fladd,w
  3483  027C  00F4               	movwf	___fladd@a
  3484  027D                     l1931:	
  3485  027D  0871               	movf	___fladd@b+1,w
  3486  027E  00A0               	movwf	??___fladd
  3487  027F  0820               	movf	??___fladd,w
  3488  0280  00FB               	movwf	___fladd@grs
  3489  0281                     l1933:	
  3490  0281  0875               	movf	___fladd@a+1,w
  3491  0282  00A0               	movwf	??___fladd
  3492  0283  0820               	movf	??___fladd,w
  3493  0284  00F1               	movwf	___fladd@b+1
  3494  0285                     l1935:	
  3495  0285  087B               	movf	___fladd@grs,w
  3496  0286  00A0               	movwf	??___fladd
  3497  0287  0820               	movf	??___fladd,w
  3498  0288  00F5               	movwf	___fladd@a+1
  3499  0289                     l1937:	
  3500  0289  0872               	movf	___fladd@b+2,w
  3501  028A  00A0               	movwf	??___fladd
  3502  028B  0820               	movf	??___fladd,w
  3503  028C  00FB               	movwf	___fladd@grs
  3504  028D                     l1939:	
  3505  028D  0876               	movf	___fladd@a+2,w
  3506  028E  00A0               	movwf	??___fladd
  3507  028F  0820               	movf	??___fladd,w
  3508  0290  00F2               	movwf	___fladd@b+2
  3509  0291                     l1941:	
  3510  0291  087B               	movf	___fladd@grs,w
  3511  0292  00A0               	movwf	??___fladd
  3512  0293  0820               	movf	??___fladd,w
  3513  0294  00F6               	movwf	___fladd@a+2
  3514  0295                     l1943:	
  3515  0295  0873               	movf	___fladd@b+3,w
  3516  0296  00A0               	movwf	??___fladd
  3517  0297  0820               	movf	??___fladd,w
  3518  0298  00FB               	movwf	___fladd@grs
  3519  0299                     l1945:	
  3520  0299  0877               	movf	___fladd@a+3,w
  3521  029A  00A0               	movwf	??___fladd
  3522  029B  0820               	movf	??___fladd,w
  3523  029C  00F3               	movwf	___fladd@b+3
  3524  029D                     l1947:	
  3525  029D  087B               	movf	___fladd@grs,w
  3526  029E  00A0               	movwf	??___fladd
  3527  029F  0820               	movf	??___fladd,w
  3528  02A0  00F7               	movwf	___fladd@a+3
  3529  02A1                     l1949:	
  3530  02A1  01FB               	clrf	___fladd@grs
  3531  02A2                     l1951:	
  3532  02A2  0879               	movf	___fladd@aexp,w
  3533  02A3  00A0               	movwf	??___fladd
  3534  02A4  01A1               	clrf	??___fladd+1
  3535  02A5  0821               	movf	??___fladd+1,w
  3536  02A6  00A3               	movwf	??___fladd+3
  3537  02A7  087A               	movf	___fladd@bexp,w
  3538  02A8  0220               	subwf	??___fladd,w
  3539  02A9  00A2               	movwf	??___fladd+2
  3540  02AA  1C03               	skipc
  3541  02AB  03A3               	decf	??___fladd+3,f
  3542  02AC  0823               	movf	??___fladd+3,w
  3543  02AD  3A80               	xorlw	128
  3544  02AE  00FF               	movwf	btemp+1
  3545  02AF  3080               	movlw	128
  3546  02B0  027F               	subwf	btemp+1,w
  3547  02B1  1D03               	skipz
  3548  02B2  2AB5               	goto	u2215
  3549  02B3  301A               	movlw	26
  3550  02B4  0222               	subwf	??___fladd+2,w
  3551  02B5                     u2215:	
  3552  02B5  1C03               	skipc
  3553  02B6  2AB8               	goto	u2211
  3554  02B7  2AB9               	goto	u2210
  3555  02B8                     u2211:	
  3556  02B8  2AFA               	goto	l1967
  3557  02B9                     u2210:	
  3558  02B9                     l1953:	
  3559  02B9  0873               	movf	___fladd@b+3,w
  3560  02BA  0472               	iorwf	___fladd@b+2,w
  3561  02BB  0471               	iorwf	___fladd@b+1,w
  3562  02BC  0470               	iorwf	___fladd@b,w
  3563  02BD  1D03               	skipz
  3564  02BE  2AC0               	goto	u2221
  3565  02BF  2AC2               	goto	u2220
  3566  02C0                     u2221:	
  3567  02C0  3001               	movlw	1
  3568  02C1  2AC3               	goto	u2230
  3569  02C2                     u2220:	
  3570  02C2  3000               	movlw	0
  3571  02C3                     u2230:	
  3572  02C3  1283               	bcf	3,5	;RP0=0, select bank0
  3573  02C4  1303               	bcf	3,6	;RP1=0, select bank0
  3574  02C5  00A0               	movwf	??___fladd
  3575  02C6  0820               	movf	??___fladd,w
  3576  02C7  00FB               	movwf	___fladd@grs
  3577  02C8  3000               	movlw	0
  3578  02C9  00F3               	movwf	___fladd@b+3
  3579  02CA  3000               	movlw	0
  3580  02CB  00F2               	movwf	___fladd@b+2
  3581  02CC  3000               	movlw	0
  3582  02CD  00F1               	movwf	___fladd@b+1
  3583  02CE  3000               	movlw	0
  3584  02CF  00F0               	movwf	___fladd@b
  3585  02D0  0879               	movf	___fladd@aexp,w
  3586  02D1  00A0               	movwf	??___fladd
  3587  02D2  0820               	movf	??___fladd,w
  3588  02D3  00FA               	movwf	___fladd@bexp
  3589  02D4  2B00               	goto	l566
  3590  02D5                     l568:	
  3591  02D5  1C7B               	btfss	___fladd@grs,0
  3592  02D6  2AD8               	goto	u2241
  3593  02D7  2AD9               	goto	u2240
  3594  02D8                     u2241:	
  3595  02D8  2AE4               	goto	l1957
  3596  02D9                     u2240:	
  3597  02D9                     l1955:	
  3598  02D9  087B               	movf	___fladd@grs,w
  3599  02DA  1283               	bcf	3,5	;RP0=0, select bank0
  3600  02DB  1303               	bcf	3,6	;RP1=0, select bank0
  3601  02DC  00A0               	movwf	??___fladd
  3602  02DD  1003               	clrc
  3603  02DE  0C20               	rrf	??___fladd,w
  3604  02DF  3801               	iorlw	1
  3605  02E0  00A1               	movwf	??___fladd+1
  3606  02E1  0821               	movf	??___fladd+1,w
  3607  02E2  00FB               	movwf	___fladd@grs
  3608  02E3  2AE6               	goto	l1959
  3609  02E4                     l1957:	
  3610  02E4  1003               	clrc
  3611  02E5  0CFB               	rrf	___fladd@grs,f
  3612  02E6                     l1959:	
  3613  02E6  1C70               	btfss	___fladd@b,0
  3614  02E7  2AE9               	goto	u2251
  3615  02E8  2AEA               	goto	u2250
  3616  02E9                     u2251:	
  3617  02E9  2AEB               	goto	l1963
  3618  02EA                     u2250:	
  3619  02EA                     l1961:	
  3620  02EA  17FB               	bsf	___fladd@grs,7
  3621  02EB                     l1963:	
  3622  02EB  3001               	movlw	1
  3623  02EC  1283               	bcf	3,5	;RP0=0, select bank0
  3624  02ED  1303               	bcf	3,6	;RP1=0, select bank0
  3625  02EE  00A0               	movwf	??___fladd
  3626  02EF                     u2265:	
  3627  02EF  0D73               	rlf	___fladd@b+3,w
  3628  02F0  0CF3               	rrf	___fladd@b+3,f
  3629  02F1  0CF2               	rrf	___fladd@b+2,f
  3630  02F2  0CF1               	rrf	___fladd@b+1,f
  3631  02F3  0CF0               	rrf	___fladd@b,f
  3632  02F4  0BA0               	decfsz	??___fladd& (0+127),f
  3633  02F5  2AEF               	goto	u2265
  3634  02F6                     l1965:	
  3635  02F6  3001               	movlw	1
  3636  02F7  00A0               	movwf	??___fladd
  3637  02F8  0820               	movf	??___fladd,w
  3638  02F9  07FA               	addwf	___fladd@bexp,f
  3639  02FA                     l1967:	
  3640  02FA  0879               	movf	___fladd@aexp,w
  3641  02FB  027A               	subwf	___fladd@bexp,w
  3642  02FC  1C03               	skipc
  3643  02FD  2AFF               	goto	u2271
  3644  02FE  2B00               	goto	u2270
  3645  02FF                     u2271:	
  3646  02FF  2AD5               	goto	l568
  3647  0300                     u2270:	
  3648  0300                     l566:	
  3649  0300  1B78               	btfsc	___fladd@signs,6
  3650  0301  2B03               	goto	u2281
  3651  0302  2B04               	goto	u2280
  3652  0303                     u2281:	
  3653  0303  2B53               	goto	l1993
  3654  0304                     u2280:	
  3655  0304                     l1969:	
  3656  0304  087A               	movf	___fladd@bexp,w
  3657  0305  1D03               	btfss	3,2
  3658  0306  2B08               	goto	u2291
  3659  0307  2B09               	goto	u2290
  3660  0308                     u2291:	
  3661  0308  2B12               	goto	l1975
  3662  0309                     u2290:	
  3663  0309                     l1971:	
  3664  0309  3000               	movlw	0
  3665  030A  00F3               	movwf	?___fladd+3
  3666  030B  3000               	movlw	0
  3667  030C  00F2               	movwf	?___fladd+2
  3668  030D  3000               	movlw	0
  3669  030E  00F1               	movwf	?___fladd+1
  3670  030F  3000               	movlw	0
  3671  0310  00F0               	movwf	?___fladd
  3672  0311  2C8B               	goto	l575
  3673  0312                     l1975:	
  3674  0312  0874               	movf	___fladd@a,w
  3675  0313  07F0               	addwf	___fladd@b,f
  3676  0314  0875               	movf	___fladd@a+1,w
  3677  0315  1103               	clrz
  3678  0316  1803               	skipnc
  3679  0317  3E01               	addlw	1
  3680  0318  1903               	skipnz
  3681  0319  2B1B               	goto	u2301
  3682  031A  07F1               	addwf	___fladd@b+1,f
  3683  031B                     u2301:	
  3684  031B  0876               	movf	___fladd@a+2,w
  3685  031C  1103               	clrz
  3686  031D  1803               	skipnc
  3687  031E  3E01               	addlw	1
  3688  031F  1903               	skipnz
  3689  0320  2B22               	goto	u2302
  3690  0321  07F2               	addwf	___fladd@b+2,f
  3691  0322                     u2302:	
  3692  0322  0877               	movf	___fladd@a+3,w
  3693  0323  1103               	clrz
  3694  0324  1803               	skipnc
  3695  0325  3E01               	addlw	1
  3696  0326  1903               	skipnz
  3697  0327  2B29               	goto	u2303
  3698  0328  07F3               	addwf	___fladd@b+3,f
  3699  0329                     u2303:	
  3700  0329                     l1977:	
  3701  0329  1C73               	btfss	___fladd@b+3,0
  3702  032A  2B2C               	goto	u2311
  3703  032B  2B2D               	goto	u2310
  3704  032C                     u2311:	
  3705  032C  2C0B               	goto	l2027
  3706  032D                     u2310:	
  3707  032D                     l1979:	
  3708  032D  1C7B               	btfss	___fladd@grs,0
  3709  032E  2B30               	goto	u2321
  3710  032F  2B31               	goto	u2320
  3711  0330                     u2321:	
  3712  0330  2B3C               	goto	l1983
  3713  0331                     u2320:	
  3714  0331                     l1981:	
  3715  0331  087B               	movf	___fladd@grs,w
  3716  0332  1283               	bcf	3,5	;RP0=0, select bank0
  3717  0333  1303               	bcf	3,6	;RP1=0, select bank0
  3718  0334  00A0               	movwf	??___fladd
  3719  0335  1003               	clrc
  3720  0336  0C20               	rrf	??___fladd,w
  3721  0337  3801               	iorlw	1
  3722  0338  00A1               	movwf	??___fladd+1
  3723  0339  0821               	movf	??___fladd+1,w
  3724  033A  00FB               	movwf	___fladd@grs
  3725  033B  2B3E               	goto	l1985
  3726  033C                     l1983:	
  3727  033C  1003               	clrc
  3728  033D  0CFB               	rrf	___fladd@grs,f
  3729  033E                     l1985:	
  3730  033E  1C70               	btfss	___fladd@b,0
  3731  033F  2B41               	goto	u2331
  3732  0340  2B42               	goto	u2330
  3733  0341                     u2331:	
  3734  0341  2B43               	goto	l1989
  3735  0342                     u2330:	
  3736  0342                     l1987:	
  3737  0342  17FB               	bsf	___fladd@grs,7
  3738  0343                     l1989:	
  3739  0343  3001               	movlw	1
  3740  0344  1283               	bcf	3,5	;RP0=0, select bank0
  3741  0345  1303               	bcf	3,6	;RP1=0, select bank0
  3742  0346  00A0               	movwf	??___fladd
  3743  0347                     u2345:	
  3744  0347  0D73               	rlf	___fladd@b+3,w
  3745  0348  0CF3               	rrf	___fladd@b+3,f
  3746  0349  0CF2               	rrf	___fladd@b+2,f
  3747  034A  0CF1               	rrf	___fladd@b+1,f
  3748  034B  0CF0               	rrf	___fladd@b,f
  3749  034C  0BA0               	decfsz	??___fladd& (0+127),f
  3750  034D  2B47               	goto	u2345
  3751  034E                     l1991:	
  3752  034E  3001               	movlw	1
  3753  034F  00A0               	movwf	??___fladd
  3754  0350  0820               	movf	??___fladd,w
  3755  0351  07FA               	addwf	___fladd@bexp,f
  3756  0352  2C0B               	goto	l2027
  3757  0353                     l1993:	
  3758  0353  0873               	movf	___fladd@b+3,w
  3759  0354  3A80               	xorlw	128
  3760  0355  00FF               	movwf	btemp+1
  3761  0356  0877               	movf	___fladd@a+3,w
  3762  0357  3A80               	xorlw	128
  3763  0358  027F               	subwf	btemp+1,w
  3764  0359  1D03               	skipz
  3765  035A  2B65               	goto	u2353
  3766  035B  0876               	movf	___fladd@a+2,w
  3767  035C  0272               	subwf	___fladd@b+2,w
  3768  035D  1D03               	skipz
  3769  035E  2B65               	goto	u2353
  3770  035F  0875               	movf	___fladd@a+1,w
  3771  0360  0271               	subwf	___fladd@b+1,w
  3772  0361  1D03               	skipz
  3773  0362  2B65               	goto	u2353
  3774  0363  0874               	movf	___fladd@a,w
  3775  0364  0270               	subwf	___fladd@b,w
  3776  0365                     u2353:	
  3777  0365  1803               	skipnc
  3778  0366  2B68               	goto	u2351
  3779  0367  2B69               	goto	u2350
  3780  0368                     u2351:	
  3781  0368  2BC3               	goto	l2003
  3782  0369                     u2350:	
  3783  0369                     l1995:	
  3784  0369  30FF               	movlw	255
  3785  036A  1283               	bcf	3,5	;RP0=0, select bank0
  3786  036B  1303               	bcf	3,6	;RP1=0, select bank0
  3787  036C  00A0               	movwf	??___fladd
  3788  036D  30FF               	movlw	255
  3789  036E  00A1               	movwf	??___fladd+1
  3790  036F  30FF               	movlw	255
  3791  0370  00A2               	movwf	??___fladd+2
  3792  0371  30FF               	movlw	255
  3793  0372  00A3               	movwf	??___fladd+3
  3794  0373  0874               	movf	___fladd@a,w
  3795  0374  00A4               	movwf	??___fladd+4
  3796  0375  0875               	movf	___fladd@a+1,w
  3797  0376  00A5               	movwf	??___fladd+5
  3798  0377  0876               	movf	___fladd@a+2,w
  3799  0378  00A6               	movwf	??___fladd+6
  3800  0379  0877               	movf	___fladd@a+3,w
  3801  037A  00A7               	movwf	??___fladd+7
  3802  037B  0870               	movf	___fladd@b,w
  3803  037C  02A4               	subwf	??___fladd+4,f
  3804  037D  0871               	movf	___fladd@b+1,w
  3805  037E  1C03               	skipc
  3806  037F  0F71               	incfsz	___fladd@b+1,w
  3807  0380  2B82               	goto	u2361
  3808  0381  2B83               	goto	u2362
  3809  0382                     u2361:	
  3810  0382  02A5               	subwf	??___fladd+5,f
  3811  0383                     u2362:	
  3812  0383  0872               	movf	___fladd@b+2,w
  3813  0384  1C03               	skipc
  3814  0385  0F72               	incfsz	___fladd@b+2,w
  3815  0386  2B88               	goto	u2363
  3816  0387  2B89               	goto	u2364
  3817  0388                     u2363:	
  3818  0388  02A6               	subwf	??___fladd+6,f
  3819  0389                     u2364:	
  3820  0389  0873               	movf	___fladd@b+3,w
  3821  038A  1C03               	skipc
  3822  038B  0F73               	incfsz	___fladd@b+3,w
  3823  038C  2B8E               	goto	u2365
  3824  038D  2B8F               	goto	u2366
  3825  038E                     u2365:	
  3826  038E  02A7               	subwf	??___fladd+7,f
  3827  038F                     u2366:	
  3828  038F  0824               	movf	??___fladd+4,w
  3829  0390  07A0               	addwf	??___fladd,f
  3830  0391  0825               	movf	??___fladd+5,w
  3831  0392  1803               	skipnc
  3832  0393  0F25               	incfsz	??___fladd+5,w
  3833  0394  2B96               	goto	u2370
  3834  0395  2B97               	goto	u2371
  3835  0396                     u2370:	
  3836  0396  07A1               	addwf	??___fladd+1,f
  3837  0397                     u2371:	
  3838  0397  0826               	movf	??___fladd+6,w
  3839  0398  1803               	skipnc
  3840  0399  0F26               	incfsz	??___fladd+6,w
  3841  039A  2B9C               	goto	u2372
  3842  039B  2B9D               	goto	u2373
  3843  039C                     u2372:	
  3844  039C  07A2               	addwf	??___fladd+2,f
  3845  039D                     u2373:	
  3846  039D  0827               	movf	??___fladd+7,w
  3847  039E  1803               	skipnc
  3848  039F  0A27               	incf	??___fladd+7,w
  3849  03A0  07A3               	addwf	??___fladd+3,f
  3850  03A1  0823               	movf	??___fladd+3,w
  3851  03A2  00F3               	movwf	___fladd@b+3
  3852  03A3  0822               	movf	??___fladd+2,w
  3853  03A4  00F2               	movwf	___fladd@b+2
  3854  03A5  0821               	movf	??___fladd+1,w
  3855  03A6  00F1               	movwf	___fladd@b+1
  3856  03A7  0820               	movf	??___fladd,w
  3857  03A8  00F0               	movwf	___fladd@b
  3858  03A9                     l1997:	
  3859  03A9  3080               	movlw	128
  3860  03AA  00A0               	movwf	??___fladd
  3861  03AB  0820               	movf	??___fladd,w
  3862  03AC  06F8               	xorwf	___fladd@signs,f
  3863  03AD  09FB               	comf	___fladd@grs,f
  3864  03AE  0AFB               	incf	___fladd@grs,f
  3865  03AF                     l1999:	
  3866  03AF  087B               	movf	___fladd@grs,w
  3867  03B0  1D03               	btfss	3,2
  3868  03B1  2BB3               	goto	u2381
  3869  03B2  2BB4               	goto	u2380
  3870  03B3                     u2381:	
  3871  03B3  2BD1               	goto	l583
  3872  03B4                     u2380:	
  3873  03B4                     l2001:	
  3874  03B4  3001               	movlw	1
  3875  03B5  07F0               	addwf	___fladd@b,f
  3876  03B6  3000               	movlw	0
  3877  03B7  1803               	skipnc
  3878  03B8  3001               	movlw	1
  3879  03B9  07F1               	addwf	___fladd@b+1,f
  3880  03BA  3000               	movlw	0
  3881  03BB  1803               	skipnc
  3882  03BC  3001               	movlw	1
  3883  03BD  07F2               	addwf	___fladd@b+2,f
  3884  03BE  3000               	movlw	0
  3885  03BF  1803               	skipnc
  3886  03C0  3001               	movlw	1
  3887  03C1  07F3               	addwf	___fladd@b+3,f
  3888  03C2  2BD1               	goto	l583
  3889  03C3                     l2003:	
  3890  03C3  0874               	movf	___fladd@a,w
  3891  03C4  02F0               	subwf	___fladd@b,f
  3892  03C5  0875               	movf	___fladd@a+1,w
  3893  03C6  1C03               	skipc
  3894  03C7  0F75               	incfsz	___fladd@a+1,w
  3895  03C8  02F1               	subwf	___fladd@b+1,f
  3896  03C9  0876               	movf	___fladd@a+2,w
  3897  03CA  1C03               	skipc
  3898  03CB  0F76               	incfsz	___fladd@a+2,w
  3899  03CC  02F2               	subwf	___fladd@b+2,f
  3900  03CD  0877               	movf	___fladd@a+3,w
  3901  03CE  1C03               	skipc
  3902  03CF  0F77               	incfsz	___fladd@a+3,w
  3903  03D0  02F3               	subwf	___fladd@b+3,f
  3904  03D1                     l583:	
  3905  03D1  0873               	movf	___fladd@b+3,w
  3906  03D2  0472               	iorwf	___fladd@b+2,w
  3907  03D3  0471               	iorwf	___fladd@b+1,w
  3908  03D4  0470               	iorwf	___fladd@b,w
  3909  03D5  1D03               	skipz
  3910  03D6  2BD8               	goto	u2391
  3911  03D7  2BD9               	goto	u2390
  3912  03D8                     u2391:	
  3913  03D8  2C07               	goto	l2025
  3914  03D9                     u2390:	
  3915  03D9                     l2005:	
  3916  03D9  087B               	movf	___fladd@grs,w
  3917  03DA  1D03               	btfss	3,2
  3918  03DB  2BDD               	goto	u2401
  3919  03DC  2BDE               	goto	u2400
  3920  03DD                     u2401:	
  3921  03DD  2C07               	goto	l2025
  3922  03DE                     u2400:	
  3923  03DE                     l2007:	
  3924  03DE  3000               	movlw	0
  3925  03DF  00F3               	movwf	?___fladd+3
  3926  03E0  3000               	movlw	0
  3927  03E1  00F2               	movwf	?___fladd+2
  3928  03E2  3000               	movlw	0
  3929  03E3  00F1               	movwf	?___fladd+1
  3930  03E4  3000               	movlw	0
  3931  03E5  00F0               	movwf	?___fladd
  3932  03E6  2C8B               	goto	l575
  3933  03E7                     l2011:	
  3934  03E7  3001               	movlw	1
  3935  03E8  1283               	bcf	3,5	;RP0=0, select bank0
  3936  03E9  1303               	bcf	3,6	;RP1=0, select bank0
  3937  03EA  00A0               	movwf	??___fladd
  3938  03EB                     u2415:	
  3939  03EB  1003               	clrc
  3940  03EC  0DF0               	rlf	___fladd@b,f
  3941  03ED  0DF1               	rlf	___fladd@b+1,f
  3942  03EE  0DF2               	rlf	___fladd@b+2,f
  3943  03EF  0DF3               	rlf	___fladd@b+3,f
  3944  03F0  0BA0               	decfsz	??___fladd,f
  3945  03F1  2BEB               	goto	u2415
  3946  03F2                     l2013:	
  3947  03F2  1FFB               	btfss	___fladd@grs,7
  3948  03F3  2BF5               	goto	u2421
  3949  03F4  2BF6               	goto	u2420
  3950  03F5                     u2421:	
  3951  03F5  2BF7               	goto	l587
  3952  03F6                     u2420:	
  3953  03F6                     l2015:	
  3954  03F6  1470               	bsf	___fladd@b,0
  3955  03F7                     l587:	
  3956  03F7  1C7B               	btfss	___fladd@grs,0
  3957  03F8  2BFA               	goto	u2431
  3958  03F9  2BFB               	goto	u2430
  3959  03FA                     u2431:	
  3960  03FA  2BFE               	goto	l2019
  3961  03FB                     u2430:	
  3962  03FB                     l2017:	
  3963  03FB  1403               	setc
  3964  03FC  0DFB               	rlf	___fladd@grs,f
  3965  03FD  2C00               	goto	l2021
  3966  03FE                     l2019:	
  3967  03FE  1003               	clrc
  3968  03FF  0DFB               	rlf	___fladd@grs,f
  3969  0400                     l2021:	
  3970  0400  087A               	movf	___fladd@bexp,w
  3971  0401  1903               	btfsc	3,2
  3972  0402  2C04               	goto	u2441
  3973  0403  2C05               	goto	u2440
  3974  0404                     u2441:	
  3975  0404  2C07               	goto	l2025
  3976  0405                     u2440:	
  3977  0405                     l2023:	
  3978  0405  3001               	movlw	1
  3979  0406  02FA               	subwf	___fladd@bexp,f
  3980  0407                     l2025:	
  3981  0407  1FF2               	btfss	___fladd@b+2,7
  3982  0408  2C0A               	goto	u2451
  3983  0409  2C0B               	goto	u2450
  3984  040A                     u2451:	
  3985  040A  2BE7               	goto	l2011
  3986  040B                     u2450:	
  3987  040B                     l2027:	
  3988  040B  01F9               	clrf	___fladd@aexp
  3989  040C                     l2029:	
  3990  040C  1FFB               	btfss	___fladd@grs,7
  3991  040D  2C0F               	goto	u2461
  3992  040E  2C10               	goto	u2460
  3993  040F                     u2461:	
  3994  040F  2C1E               	goto	l2037
  3995  0410                     u2460:	
  3996  0410                     l2031:	
  3997  0410  087B               	movf	___fladd@grs,w
  3998  0411  397F               	andlw	127
  3999  0412  1903               	btfsc	3,2
  4000  0413  2C15               	goto	u2471
  4001  0414  2C16               	goto	u2470
  4002  0415                     u2471:	
  4003  0415  2C19               	goto	l593
  4004  0416                     u2470:	
  4005  0416                     l2033:	
  4006  0416  01F9               	clrf	___fladd@aexp
  4007  0417  0AF9               	incf	___fladd@aexp,f
  4008  0418  2C1E               	goto	l2037
  4009  0419                     l593:	
  4010  0419  1C70               	btfss	___fladd@b,0
  4011  041A  2C1C               	goto	u2481
  4012  041B  2C1D               	goto	u2480
  4013  041C                     u2481:	
  4014  041C  2C1E               	goto	l2037
  4015  041D                     u2480:	
  4016  041D  2C16               	goto	l2033
  4017  041E                     l2037:	
  4018  041E  0879               	movf	___fladd@aexp,w
  4019  041F  1903               	btfsc	3,2
  4020  0420  2C22               	goto	u2491
  4021  0421  2C23               	goto	u2490
  4022  0422                     u2491:	
  4023  0422  2C59               	goto	l596
  4024  0423                     u2490:	
  4025  0423                     l2039:	
  4026  0423  3001               	movlw	1
  4027  0424  07F0               	addwf	___fladd@b,f
  4028  0425  3000               	movlw	0
  4029  0426  1803               	skipnc
  4030  0427  3001               	movlw	1
  4031  0428  07F1               	addwf	___fladd@b+1,f
  4032  0429  3000               	movlw	0
  4033  042A  1803               	skipnc
  4034  042B  3001               	movlw	1
  4035  042C  07F2               	addwf	___fladd@b+2,f
  4036  042D  3000               	movlw	0
  4037  042E  1803               	skipnc
  4038  042F  3001               	movlw	1
  4039  0430  07F3               	addwf	___fladd@b+3,f
  4040  0431                     l2041:	
  4041  0431  1C73               	btfss	___fladd@b+3,0
  4042  0432  2C34               	goto	u2501
  4043  0433  2C35               	goto	u2500
  4044  0434                     u2501:	
  4045  0434  2C59               	goto	l596
  4046  0435                     u2500:	
  4047  0435                     l2043:	
  4048  0435  0870               	movf	___fladd@b,w
  4049  0436  1283               	bcf	3,5	;RP0=0, select bank0
  4050  0437  1303               	bcf	3,6	;RP1=0, select bank0
  4051  0438  00A0               	movwf	??___fladd
  4052  0439  0871               	movf	___fladd@b+1,w
  4053  043A  00A1               	movwf	??___fladd+1
  4054  043B  0872               	movf	___fladd@b+2,w
  4055  043C  00A2               	movwf	??___fladd+2
  4056  043D  0873               	movf	___fladd@b+3,w
  4057  043E  00A3               	movwf	??___fladd+3
  4058  043F  3001               	movlw	1
  4059  0440  00A4               	movwf	??___fladd+4
  4060  0441                     u2515:	
  4061  0441  0D23               	rlf	??___fladd+3,w
  4062  0442  0CA3               	rrf	??___fladd+3,f
  4063  0443  0CA2               	rrf	??___fladd+2,f
  4064  0444  0CA1               	rrf	??___fladd+1,f
  4065  0445  0CA0               	rrf	??___fladd,f
  4066  0446                     u2510:	
  4067  0446  0BA4               	decfsz	??___fladd+4,f
  4068  0447  2C41               	goto	u2515
  4069  0448  0823               	movf	??___fladd+3,w
  4070  0449  00F3               	movwf	___fladd@b+3
  4071  044A  0822               	movf	??___fladd+2,w
  4072  044B  00F2               	movwf	___fladd@b+2
  4073  044C  0821               	movf	??___fladd+1,w
  4074  044D  00F1               	movwf	___fladd@b+1
  4075  044E  0820               	movf	??___fladd,w
  4076  044F  00F0               	movwf	___fladd@b
  4077  0450  0A7A               	incf	___fladd@bexp,w
  4078  0451  1903               	btfsc	3,2
  4079  0452  2C54               	goto	u2521
  4080  0453  2C55               	goto	u2520
  4081  0454                     u2521:	
  4082  0454  2C59               	goto	l596
  4083  0455                     u2520:	
  4084  0455                     l2045:	
  4085  0455  3001               	movlw	1
  4086  0456  00A0               	movwf	??___fladd
  4087  0457  0820               	movf	??___fladd,w
  4088  0458  07FA               	addwf	___fladd@bexp,f
  4089  0459                     l596:	
  4090  0459  0A7A               	incf	___fladd@bexp,w
  4091  045A  1903               	btfsc	3,2
  4092  045B  2C5D               	goto	u2531
  4093  045C  2C5E               	goto	u2530
  4094  045D                     u2531:	
  4095  045D  2C63               	goto	l2049
  4096  045E                     u2530:	
  4097  045E                     l2047:	
  4098  045E  087A               	movf	___fladd@bexp,w
  4099  045F  1D03               	btfss	3,2
  4100  0460  2C62               	goto	u2541
  4101  0461  2C63               	goto	u2540
  4102  0462                     u2541:	
  4103  0462  2C71               	goto	l2055
  4104  0463                     u2540:	
  4105  0463                     l2049:	
  4106  0463  3000               	movlw	0
  4107  0464  00F3               	movwf	___fladd@b+3
  4108  0465  3000               	movlw	0
  4109  0466  00F2               	movwf	___fladd@b+2
  4110  0467  3000               	movlw	0
  4111  0468  00F1               	movwf	___fladd@b+1
  4112  0469  3000               	movlw	0
  4113  046A  00F0               	movwf	___fladd@b
  4114  046B                     l2051:	
  4115  046B  087A               	movf	___fladd@bexp,w
  4116  046C  1D03               	btfss	3,2
  4117  046D  2C6F               	goto	u2551
  4118  046E  2C70               	goto	u2550
  4119  046F                     u2551:	
  4120  046F  2C71               	goto	l2055
  4121  0470                     u2550:	
  4122  0470                     l2053:	
  4123  0470  01F8               	clrf	___fladd@signs
  4124  0471                     l2055:	
  4125  0471  1C7A               	btfss	___fladd@bexp,0
  4126  0472  2C74               	goto	u2561
  4127  0473  2C75               	goto	u2560
  4128  0474                     u2561:	
  4129  0474  2C77               	goto	l2059
  4130  0475                     u2560:	
  4131  0475                     l2057:	
  4132  0475  17F2               	bsf	___fladd@b+2,7
  4133  0476  2C7D               	goto	l604
  4134  0477                     l2059:	
  4135  0477  307F               	movlw	127
  4136  0478  1283               	bcf	3,5	;RP0=0, select bank0
  4137  0479  1303               	bcf	3,6	;RP1=0, select bank0
  4138  047A  00A0               	movwf	??___fladd
  4139  047B  0820               	movf	??___fladd,w
  4140  047C  05F2               	andwf	___fladd@b+2,f
  4141  047D                     l604:	
  4142  047D  087A               	movf	___fladd@bexp,w
  4143  047E  1283               	bcf	3,5	;RP0=0, select bank0
  4144  047F  1303               	bcf	3,6	;RP1=0, select bank0
  4145  0480  00A0               	movwf	??___fladd
  4146  0481  1003               	clrc
  4147  0482  0C20               	rrf	??___fladd,w
  4148  0483  00A1               	movwf	??___fladd+1
  4149  0484  0821               	movf	??___fladd+1,w
  4150  0485  00F3               	movwf	___fladd@b+3
  4151  0486                     l2061:	
  4152  0486  1FF8               	btfss	___fladd@signs,7
  4153  0487  2C89               	goto	u2571
  4154  0488  2C8A               	goto	u2570
  4155  0489                     u2571:	
  4156  0489  2C8B               	goto	l605
  4157  048A                     u2570:	
  4158  048A                     l2063:	
  4159  048A  17F3               	bsf	___fladd@b+3,7
  4160  048B                     l605:	
  4161  048B                     l575:	
  4162  048B  0008               	return
  4163  048C                     __end_of___fladd:	
  4164                           
  4165                           	psect	text15
  4166  048C                     __ptext15:	
  4167 ;; *************** function ___flmul *****************
  4168 ;; Defined at:
  4169 ;;		line 8 in file "C:\Program Files (x86)\Microchip\xc8\v2.10\pic\sources\c90\common\sprcmul.c"
  4170 ;; Parameters:    Size  Location     Type
  4171 ;;  b               4   16[BANK0 ] unsigned char 
  4172 ;;  a               4   20[BANK0 ] unsigned char 
  4173 ;; Auto vars:     Size  Location     Type
  4174 ;;  prod            4   36[BANK0 ] struct .
  4175 ;;  grs             4   30[BANK0 ] unsigned long 
  4176 ;;  temp            2   40[BANK0 ] struct .
  4177 ;;  bexp            1   35[BANK0 ] unsigned char 
  4178 ;;  aexp            1   34[BANK0 ] unsigned char 
  4179 ;;  sign            1   29[BANK0 ] unsigned char 
  4180 ;; Return value:  Size  Location     Type
  4181 ;;                  4   16[BANK0 ] unsigned char 
  4182 ;; Registers used:
  4183 ;;		wreg, status,2, status,0, btemp+1, pclath, cstack
  4184 ;; Tracked objects:
  4185 ;;		On entry : 0/0
  4186 ;;		On exit  : 0/0
  4187 ;;		Unchanged: 0/0
  4188 ;; Data sizes:     COMMON   BANK0   BANK1   BANK3   BANK2
  4189 ;;      Params:         0       8       0       0       0
  4190 ;;      Locals:         0      13       0       0       0
  4191 ;;      Temps:          0       5       0       0       0
  4192 ;;      Totals:         0      26       0       0       0
  4193 ;;Total ram usage:       26 bytes
  4194 ;; Hardware stack levels used:    1
  4195 ;; Hardware stack levels required when called:    1
  4196 ;; This function calls:
  4197 ;;		__Umul8_16
  4198 ;; This function is called by:
  4199 ;;		_main
  4200 ;; This function uses a non-reentrant model
  4201 ;;
  4202                           
  4203                           
  4204                           ;psect for function ___flmul
  4205  048C                     ___flmul:	
  4206  048C                     l2335:	
  4207                           ;incstack = 0
  4208                           ; Regs used in ___flmul: [wreg+status,2+status,0+btemp+1+pclath+cstack]
  4209                           
  4210  048C  1283               	bcf	3,5	;RP0=0, select bank0
  4211  048D  1303               	bcf	3,6	;RP1=0, select bank0
  4212  048E  0833               	movf	___flmul@b+3,w
  4213  048F  3980               	andlw	128
  4214  0490  00B8               	movwf	??___flmul
  4215  0491  0838               	movf	??___flmul,w
  4216  0492  00BD               	movwf	___flmul@sign
  4217  0493                     l2337:	
  4218  0493  0833               	movf	___flmul@b+3,w
  4219  0494  00B8               	movwf	??___flmul
  4220  0495  0738               	addwf	??___flmul,w
  4221  0496  00B9               	movwf	??___flmul+1
  4222  0497  0839               	movf	??___flmul+1,w
  4223  0498  00C3               	movwf	___flmul@bexp
  4224  0499                     l2339:	
  4225  0499  1FB2               	btfss	___flmul@b+2,7
  4226  049A  2C9C               	goto	u3041
  4227  049B  2C9D               	goto	u3040
  4228  049C                     u3041:	
  4229  049C  2C9E               	goto	l2343
  4230  049D                     u3040:	
  4231  049D                     l2341:	
  4232  049D  1443               	bsf	___flmul@bexp,0
  4233  049E                     l2343:	
  4234  049E  0843               	movf	___flmul@bexp,w
  4235  049F  1903               	btfsc	3,2
  4236  04A0  2CA2               	goto	u3051
  4237  04A1  2CA3               	goto	u3050
  4238  04A2                     u3051:	
  4239  04A2  2CB2               	goto	l2351
  4240  04A3                     u3050:	
  4241  04A3                     l2345:	
  4242  04A3  0A43               	incf	___flmul@bexp,w
  4243  04A4  1D03               	btfss	3,2
  4244  04A5  2CA7               	goto	u3061
  4245  04A6  2CA8               	goto	u3060
  4246  04A7                     u3061:	
  4247  04A7  2CB0               	goto	l2349
  4248  04A8                     u3060:	
  4249  04A8                     l2347:	
  4250  04A8  3000               	movlw	0
  4251  04A9  00B3               	movwf	___flmul@b+3
  4252  04AA  3000               	movlw	0
  4253  04AB  00B2               	movwf	___flmul@b+2
  4254  04AC  3000               	movlw	0
  4255  04AD  00B1               	movwf	___flmul@b+1
  4256  04AE  3000               	movlw	0
  4257  04AF  00B0               	movwf	___flmul@b
  4258  04B0                     l2349:	
  4259  04B0  17B2               	bsf	___flmul@b+2,7
  4260  04B1  2CBA               	goto	l2353
  4261  04B2                     l2351:	
  4262  04B2  3000               	movlw	0
  4263  04B3  00B3               	movwf	___flmul@b+3
  4264  04B4  3000               	movlw	0
  4265  04B5  00B2               	movwf	___flmul@b+2
  4266  04B6  3000               	movlw	0
  4267  04B7  00B1               	movwf	___flmul@b+1
  4268  04B8  3000               	movlw	0
  4269  04B9  00B0               	movwf	___flmul@b
  4270  04BA                     l2353:	
  4271  04BA  0837               	movf	___flmul@a+3,w
  4272  04BB  3980               	andlw	128
  4273  04BC  00B8               	movwf	??___flmul
  4274  04BD  0838               	movf	??___flmul,w
  4275  04BE  06BD               	xorwf	___flmul@sign,f
  4276  04BF                     l2355:	
  4277  04BF  0837               	movf	___flmul@a+3,w
  4278  04C0  00B8               	movwf	??___flmul
  4279  04C1  0738               	addwf	??___flmul,w
  4280  04C2  00B9               	movwf	??___flmul+1
  4281  04C3  0839               	movf	??___flmul+1,w
  4282  04C4  00C2               	movwf	___flmul@aexp
  4283  04C5                     l2357:	
  4284  04C5  1FB6               	btfss	___flmul@a+2,7
  4285  04C6  2CC8               	goto	u3071
  4286  04C7  2CC9               	goto	u3070
  4287  04C8                     u3071:	
  4288  04C8  2CCA               	goto	l2361
  4289  04C9                     u3070:	
  4290  04C9                     l2359:	
  4291  04C9  1442               	bsf	___flmul@aexp,0
  4292  04CA                     l2361:	
  4293  04CA  0842               	movf	___flmul@aexp,w
  4294  04CB  1903               	btfsc	3,2
  4295  04CC  2CCE               	goto	u3081
  4296  04CD  2CCF               	goto	u3080
  4297  04CE                     u3081:	
  4298  04CE  2CDE               	goto	l2369
  4299  04CF                     u3080:	
  4300  04CF                     l2363:	
  4301  04CF  0A42               	incf	___flmul@aexp,w
  4302  04D0  1D03               	btfss	3,2
  4303  04D1  2CD3               	goto	u3091
  4304  04D2  2CD4               	goto	u3090
  4305  04D3                     u3091:	
  4306  04D3  2CDC               	goto	l2367
  4307  04D4                     u3090:	
  4308  04D4                     l2365:	
  4309  04D4  3000               	movlw	0
  4310  04D5  00B7               	movwf	___flmul@a+3
  4311  04D6  3000               	movlw	0
  4312  04D7  00B6               	movwf	___flmul@a+2
  4313  04D8  3000               	movlw	0
  4314  04D9  00B5               	movwf	___flmul@a+1
  4315  04DA  3000               	movlw	0
  4316  04DB  00B4               	movwf	___flmul@a
  4317  04DC                     l2367:	
  4318  04DC  17B6               	bsf	___flmul@a+2,7
  4319  04DD  2CE6               	goto	l2371
  4320  04DE                     l2369:	
  4321  04DE  3000               	movlw	0
  4322  04DF  00B7               	movwf	___flmul@a+3
  4323  04E0  3000               	movlw	0
  4324  04E1  00B6               	movwf	___flmul@a+2
  4325  04E2  3000               	movlw	0
  4326  04E3  00B5               	movwf	___flmul@a+1
  4327  04E4  3000               	movlw	0
  4328  04E5  00B4               	movwf	___flmul@a
  4329  04E6                     l2371:	
  4330  04E6  0842               	movf	___flmul@aexp,w
  4331  04E7  1903               	btfsc	3,2
  4332  04E8  2CEA               	goto	u3101
  4333  04E9  2CEB               	goto	u3100
  4334  04EA                     u3101:	
  4335  04EA  2CF0               	goto	l2375
  4336  04EB                     u3100:	
  4337  04EB                     l2373:	
  4338  04EB  0843               	movf	___flmul@bexp,w
  4339  04EC  1D03               	btfss	3,2
  4340  04ED  2CEF               	goto	u3111
  4341  04EE  2CF0               	goto	u3110
  4342  04EF                     u3111:	
  4343  04EF  2CF9               	goto	l2379
  4344  04F0                     u3110:	
  4345  04F0                     l2375:	
  4346  04F0  3000               	movlw	0
  4347  04F1  00B3               	movwf	?___flmul+3
  4348  04F2  3000               	movlw	0
  4349  04F3  00B2               	movwf	?___flmul+2
  4350  04F4  3000               	movlw	0
  4351  04F5  00B1               	movwf	?___flmul+1
  4352  04F6  3000               	movlw	0
  4353  04F7  00B0               	movwf	?___flmul
  4354  04F8  2FEC               	goto	l658
  4355  04F9                     l2379:	
  4356  04F9  0830               	movf	___flmul@b,w
  4357  04FA  00B8               	movwf	??___flmul
  4358  04FB  0838               	movf	??___flmul,w
  4359  04FC  00F0               	movwf	__Umul8_16@multiplicand
  4360  04FD  0836               	movf	___flmul@a+2,w
  4361  04FE  120A  158A  21C2  120A  118A  	fcall	__Umul8_16
  4362  0503  0871               	movf	?__Umul8_16+1,w
  4363  0504  1283               	bcf	3,5	;RP0=0, select bank0
  4364  0505  1303               	bcf	3,6	;RP1=0, select bank0
  4365  0506  00C9               	movwf	___flmul@temp+1
  4366  0507  0870               	movf	?__Umul8_16,w
  4367  0508  00C8               	movwf	___flmul@temp
  4368  0509                     l2381:	
  4369  0509  0848               	movf	___flmul@temp,w
  4370  050A  00B8               	movwf	??___flmul
  4371  050B  01B9               	clrf	??___flmul+1
  4372  050C  01BA               	clrf	??___flmul+2
  4373  050D  01BB               	clrf	??___flmul+3
  4374  050E  083B               	movf	??___flmul+3,w
  4375  050F  00C1               	movwf	___flmul@grs+3
  4376  0510  083A               	movf	??___flmul+2,w
  4377  0511  00C0               	movwf	___flmul@grs+2
  4378  0512  0839               	movf	??___flmul+1,w
  4379  0513  00BF               	movwf	___flmul@grs+1
  4380  0514  0838               	movf	??___flmul,w
  4381  0515  00BE               	movwf	___flmul@grs
  4382  0516                     l2383:	
  4383  0516  0849               	movf	___flmul@temp+1,w
  4384  0517  00B8               	movwf	??___flmul
  4385  0518  01B9               	clrf	??___flmul+1
  4386  0519  01BA               	clrf	??___flmul+2
  4387  051A  01BB               	clrf	??___flmul+3
  4388  051B  083B               	movf	??___flmul+3,w
  4389  051C  00C7               	movwf	___flmul@prod+3
  4390  051D  083A               	movf	??___flmul+2,w
  4391  051E  00C6               	movwf	___flmul@prod+2
  4392  051F  0839               	movf	??___flmul+1,w
  4393  0520  00C5               	movwf	___flmul@prod+1
  4394  0521  0838               	movf	??___flmul,w
  4395  0522  00C4               	movwf	___flmul@prod
  4396  0523  0831               	movf	___flmul@b+1,w
  4397  0524  00B8               	movwf	??___flmul
  4398  0525  0838               	movf	??___flmul,w
  4399  0526  00F0               	movwf	__Umul8_16@multiplicand
  4400  0527  0835               	movf	___flmul@a+1,w
  4401  0528  120A  158A  21C2  120A  118A  	fcall	__Umul8_16
  4402  052D  0871               	movf	?__Umul8_16+1,w
  4403  052E  1283               	bcf	3,5	;RP0=0, select bank0
  4404  052F  1303               	bcf	3,6	;RP1=0, select bank0
  4405  0530  00C9               	movwf	___flmul@temp+1
  4406  0531  0870               	movf	?__Umul8_16,w
  4407  0532  00C8               	movwf	___flmul@temp
  4408  0533                     l2385:	
  4409  0533  0848               	movf	___flmul@temp,w
  4410  0534  00B8               	movwf	??___flmul
  4411  0535  01B9               	clrf	??___flmul+1
  4412  0536  01BA               	clrf	??___flmul+2
  4413  0537  01BB               	clrf	??___flmul+3
  4414  0538  0838               	movf	??___flmul,w
  4415  0539  07BE               	addwf	___flmul@grs,f
  4416  053A  0839               	movf	??___flmul+1,w
  4417  053B  1103               	clrz
  4418  053C  1803               	skipnc
  4419  053D  3E01               	addlw	1
  4420  053E  1903               	skipnz
  4421  053F  2D41               	goto	u3121
  4422  0540  07BF               	addwf	___flmul@grs+1,f
  4423  0541                     u3121:	
  4424  0541  083A               	movf	??___flmul+2,w
  4425  0542  1103               	clrz
  4426  0543  1803               	skipnc
  4427  0544  3E01               	addlw	1
  4428  0545  1903               	skipnz
  4429  0546  2D48               	goto	u3122
  4430  0547  07C0               	addwf	___flmul@grs+2,f
  4431  0548                     u3122:	
  4432  0548  083B               	movf	??___flmul+3,w
  4433  0549  1103               	clrz
  4434  054A  1803               	skipnc
  4435  054B  3E01               	addlw	1
  4436  054C  1903               	skipnz
  4437  054D  2D4F               	goto	u3123
  4438  054E  07C1               	addwf	___flmul@grs+3,f
  4439  054F                     u3123:	
  4440  054F                     l2387:	
  4441  054F  0849               	movf	___flmul@temp+1,w
  4442  0550  00B8               	movwf	??___flmul
  4443  0551  01B9               	clrf	??___flmul+1
  4444  0552  01BA               	clrf	??___flmul+2
  4445  0553  01BB               	clrf	??___flmul+3
  4446  0554  0838               	movf	??___flmul,w
  4447  0555  07C4               	addwf	___flmul@prod,f
  4448  0556  0839               	movf	??___flmul+1,w
  4449  0557  1103               	clrz
  4450  0558  1803               	skipnc
  4451  0559  3E01               	addlw	1
  4452  055A  1903               	skipnz
  4453  055B  2D5D               	goto	u3131
  4454  055C  07C5               	addwf	___flmul@prod+1,f
  4455  055D                     u3131:	
  4456  055D  083A               	movf	??___flmul+2,w
  4457  055E  1103               	clrz
  4458  055F  1803               	skipnc
  4459  0560  3E01               	addlw	1
  4460  0561  1903               	skipnz
  4461  0562  2D64               	goto	u3132
  4462  0563  07C6               	addwf	___flmul@prod+2,f
  4463  0564                     u3132:	
  4464  0564  083B               	movf	??___flmul+3,w
  4465  0565  1103               	clrz
  4466  0566  1803               	skipnc
  4467  0567  3E01               	addlw	1
  4468  0568  1903               	skipnz
  4469  0569  2D6B               	goto	u3133
  4470  056A  07C7               	addwf	___flmul@prod+3,f
  4471  056B                     u3133:	
  4472  056B  0832               	movf	___flmul@b+2,w
  4473  056C  00B8               	movwf	??___flmul
  4474  056D  0838               	movf	??___flmul,w
  4475  056E  00F0               	movwf	__Umul8_16@multiplicand
  4476  056F  0834               	movf	___flmul@a,w
  4477  0570  120A  158A  21C2  120A  118A  	fcall	__Umul8_16
  4478  0575  0871               	movf	?__Umul8_16+1,w
  4479  0576  1283               	bcf	3,5	;RP0=0, select bank0
  4480  0577  1303               	bcf	3,6	;RP1=0, select bank0
  4481  0578  00C9               	movwf	___flmul@temp+1
  4482  0579  0870               	movf	?__Umul8_16,w
  4483  057A  00C8               	movwf	___flmul@temp
  4484  057B                     l2389:	
  4485  057B  0848               	movf	___flmul@temp,w
  4486  057C  00B8               	movwf	??___flmul
  4487  057D  01B9               	clrf	??___flmul+1
  4488  057E  01BA               	clrf	??___flmul+2
  4489  057F  01BB               	clrf	??___flmul+3
  4490  0580  0838               	movf	??___flmul,w
  4491  0581  07BE               	addwf	___flmul@grs,f
  4492  0582  0839               	movf	??___flmul+1,w
  4493  0583  1103               	clrz
  4494  0584  1803               	skipnc
  4495  0585  3E01               	addlw	1
  4496  0586  1903               	skipnz
  4497  0587  2D89               	goto	u3141
  4498  0588  07BF               	addwf	___flmul@grs+1,f
  4499  0589                     u3141:	
  4500  0589  083A               	movf	??___flmul+2,w
  4501  058A  1103               	clrz
  4502  058B  1803               	skipnc
  4503  058C  3E01               	addlw	1
  4504  058D  1903               	skipnz
  4505  058E  2D90               	goto	u3142
  4506  058F  07C0               	addwf	___flmul@grs+2,f
  4507  0590                     u3142:	
  4508  0590  083B               	movf	??___flmul+3,w
  4509  0591  1103               	clrz
  4510  0592  1803               	skipnc
  4511  0593  3E01               	addlw	1
  4512  0594  1903               	skipnz
  4513  0595  2D97               	goto	u3143
  4514  0596  07C1               	addwf	___flmul@grs+3,f
  4515  0597                     u3143:	
  4516  0597                     l2391:	
  4517  0597  0849               	movf	___flmul@temp+1,w
  4518  0598  00B8               	movwf	??___flmul
  4519  0599  01B9               	clrf	??___flmul+1
  4520  059A  01BA               	clrf	??___flmul+2
  4521  059B  01BB               	clrf	??___flmul+3
  4522  059C  0838               	movf	??___flmul,w
  4523  059D  07C4               	addwf	___flmul@prod,f
  4524  059E  0839               	movf	??___flmul+1,w
  4525  059F  1103               	clrz
  4526  05A0  1803               	skipnc
  4527  05A1  3E01               	addlw	1
  4528  05A2  1903               	skipnz
  4529  05A3  2DA5               	goto	u3151
  4530  05A4  07C5               	addwf	___flmul@prod+1,f
  4531  05A5                     u3151:	
  4532  05A5  083A               	movf	??___flmul+2,w
  4533  05A6  1103               	clrz
  4534  05A7  1803               	skipnc
  4535  05A8  3E01               	addlw	1
  4536  05A9  1903               	skipnz
  4537  05AA  2DAC               	goto	u3152
  4538  05AB  07C6               	addwf	___flmul@prod+2,f
  4539  05AC                     u3152:	
  4540  05AC  083B               	movf	??___flmul+3,w
  4541  05AD  1103               	clrz
  4542  05AE  1803               	skipnc
  4543  05AF  3E01               	addlw	1
  4544  05B0  1903               	skipnz
  4545  05B1  2DB3               	goto	u3153
  4546  05B2  07C7               	addwf	___flmul@prod+3,f
  4547  05B3                     u3153:	
  4548  05B3                     l2393:	
  4549  05B3  3008               	movlw	8
  4550  05B4  00B8               	movwf	??___flmul
  4551  05B5                     u3165:	
  4552  05B5  1003               	clrc
  4553  05B6  0DBE               	rlf	___flmul@grs,f
  4554  05B7  0DBF               	rlf	___flmul@grs+1,f
  4555  05B8  0DC0               	rlf	___flmul@grs+2,f
  4556  05B9  0DC1               	rlf	___flmul@grs+3,f
  4557  05BA  0BB8               	decfsz	??___flmul,f
  4558  05BB  2DB5               	goto	u3165
  4559  05BC                     l2395:	
  4560  05BC  0831               	movf	___flmul@b+1,w
  4561  05BD  00B8               	movwf	??___flmul
  4562  05BE  0838               	movf	??___flmul,w
  4563  05BF  00F0               	movwf	__Umul8_16@multiplicand
  4564  05C0  0834               	movf	___flmul@a,w
  4565  05C1  120A  158A  21C2  120A  118A  	fcall	__Umul8_16
  4566  05C6  0871               	movf	?__Umul8_16+1,w
  4567  05C7  1283               	bcf	3,5	;RP0=0, select bank0
  4568  05C8  1303               	bcf	3,6	;RP1=0, select bank0
  4569  05C9  00C9               	movwf	___flmul@temp+1
  4570  05CA  0870               	movf	?__Umul8_16,w
  4571  05CB  00C8               	movwf	___flmul@temp
  4572  05CC                     l2397:	
  4573  05CC  0848               	movf	___flmul@temp,w
  4574  05CD  00B8               	movwf	??___flmul
  4575  05CE  0849               	movf	___flmul@temp+1,w
  4576  05CF  00B9               	movwf	??___flmul+1
  4577  05D0  01BA               	clrf	??___flmul+2
  4578  05D1  01BB               	clrf	??___flmul+3
  4579  05D2  0838               	movf	??___flmul,w
  4580  05D3  07BE               	addwf	___flmul@grs,f
  4581  05D4  0839               	movf	??___flmul+1,w
  4582  05D5  1103               	clrz
  4583  05D6  1803               	skipnc
  4584  05D7  3E01               	addlw	1
  4585  05D8  1903               	skipnz
  4586  05D9  2DDB               	goto	u3171
  4587  05DA  07BF               	addwf	___flmul@grs+1,f
  4588  05DB                     u3171:	
  4589  05DB  083A               	movf	??___flmul+2,w
  4590  05DC  1103               	clrz
  4591  05DD  1803               	skipnc
  4592  05DE  3E01               	addlw	1
  4593  05DF  1903               	skipnz
  4594  05E0  2DE2               	goto	u3172
  4595  05E1  07C0               	addwf	___flmul@grs+2,f
  4596  05E2                     u3172:	
  4597  05E2  083B               	movf	??___flmul+3,w
  4598  05E3  1103               	clrz
  4599  05E4  1803               	skipnc
  4600  05E5  3E01               	addlw	1
  4601  05E6  1903               	skipnz
  4602  05E7  2DE9               	goto	u3173
  4603  05E8  07C1               	addwf	___flmul@grs+3,f
  4604  05E9                     u3173:	
  4605  05E9                     l2399:	
  4606  05E9  0830               	movf	___flmul@b,w
  4607  05EA  00B8               	movwf	??___flmul
  4608  05EB  0838               	movf	??___flmul,w
  4609  05EC  00F0               	movwf	__Umul8_16@multiplicand
  4610  05ED  0835               	movf	___flmul@a+1,w
  4611  05EE  120A  158A  21C2  120A  118A  	fcall	__Umul8_16
  4612  05F3  0871               	movf	?__Umul8_16+1,w
  4613  05F4  1283               	bcf	3,5	;RP0=0, select bank0
  4614  05F5  1303               	bcf	3,6	;RP1=0, select bank0
  4615  05F6  00C9               	movwf	___flmul@temp+1
  4616  05F7  0870               	movf	?__Umul8_16,w
  4617  05F8  00C8               	movwf	___flmul@temp
  4618  05F9                     l2401:	
  4619  05F9  0848               	movf	___flmul@temp,w
  4620  05FA  00B8               	movwf	??___flmul
  4621  05FB  0849               	movf	___flmul@temp+1,w
  4622  05FC  00B9               	movwf	??___flmul+1
  4623  05FD  01BA               	clrf	??___flmul+2
  4624  05FE  01BB               	clrf	??___flmul+3
  4625  05FF  0838               	movf	??___flmul,w
  4626  0600  07BE               	addwf	___flmul@grs,f
  4627  0601  0839               	movf	??___flmul+1,w
  4628  0602  1103               	clrz
  4629  0603  1803               	skipnc
  4630  0604  3E01               	addlw	1
  4631  0605  1903               	skipnz
  4632  0606  2E08               	goto	u3181
  4633  0607  07BF               	addwf	___flmul@grs+1,f
  4634  0608                     u3181:	
  4635  0608  083A               	movf	??___flmul+2,w
  4636  0609  1103               	clrz
  4637  060A  1803               	skipnc
  4638  060B  3E01               	addlw	1
  4639  060C  1903               	skipnz
  4640  060D  2E0F               	goto	u3182
  4641  060E  07C0               	addwf	___flmul@grs+2,f
  4642  060F                     u3182:	
  4643  060F  083B               	movf	??___flmul+3,w
  4644  0610  1103               	clrz
  4645  0611  1803               	skipnc
  4646  0612  3E01               	addlw	1
  4647  0613  1903               	skipnz
  4648  0614  2E16               	goto	u3183
  4649  0615  07C1               	addwf	___flmul@grs+3,f
  4650  0616                     u3183:	
  4651  0616                     l2403:	
  4652  0616  3008               	movlw	8
  4653  0617  00B8               	movwf	??___flmul
  4654  0618                     u3195:	
  4655  0618  1003               	clrc
  4656  0619  0DBE               	rlf	___flmul@grs,f
  4657  061A  0DBF               	rlf	___flmul@grs+1,f
  4658  061B  0DC0               	rlf	___flmul@grs+2,f
  4659  061C  0DC1               	rlf	___flmul@grs+3,f
  4660  061D  0BB8               	decfsz	??___flmul,f
  4661  061E  2E18               	goto	u3195
  4662  061F  0830               	movf	___flmul@b,w
  4663  0620  00B8               	movwf	??___flmul
  4664  0621  0838               	movf	??___flmul,w
  4665  0622  00F0               	movwf	__Umul8_16@multiplicand
  4666  0623  0834               	movf	___flmul@a,w
  4667  0624  120A  158A  21C2  120A  118A  	fcall	__Umul8_16
  4668  0629  0871               	movf	?__Umul8_16+1,w
  4669  062A  1283               	bcf	3,5	;RP0=0, select bank0
  4670  062B  1303               	bcf	3,6	;RP1=0, select bank0
  4671  062C  00C9               	movwf	___flmul@temp+1
  4672  062D  0870               	movf	?__Umul8_16,w
  4673  062E  00C8               	movwf	___flmul@temp
  4674  062F                     l2405:	
  4675  062F  0848               	movf	___flmul@temp,w
  4676  0630  00B8               	movwf	??___flmul
  4677  0631  0849               	movf	___flmul@temp+1,w
  4678  0632  00B9               	movwf	??___flmul+1
  4679  0633  01BA               	clrf	??___flmul+2
  4680  0634  01BB               	clrf	??___flmul+3
  4681  0635  0838               	movf	??___flmul,w
  4682  0636  07BE               	addwf	___flmul@grs,f
  4683  0637  0839               	movf	??___flmul+1,w
  4684  0638  1103               	clrz
  4685  0639  1803               	skipnc
  4686  063A  3E01               	addlw	1
  4687  063B  1903               	skipnz
  4688  063C  2E3E               	goto	u3201
  4689  063D  07BF               	addwf	___flmul@grs+1,f
  4690  063E                     u3201:	
  4691  063E  083A               	movf	??___flmul+2,w
  4692  063F  1103               	clrz
  4693  0640  1803               	skipnc
  4694  0641  3E01               	addlw	1
  4695  0642  1903               	skipnz
  4696  0643  2E45               	goto	u3202
  4697  0644  07C0               	addwf	___flmul@grs+2,f
  4698  0645                     u3202:	
  4699  0645  083B               	movf	??___flmul+3,w
  4700  0646  1103               	clrz
  4701  0647  1803               	skipnc
  4702  0648  3E01               	addlw	1
  4703  0649  1903               	skipnz
  4704  064A  2E4C               	goto	u3203
  4705  064B  07C1               	addwf	___flmul@grs+3,f
  4706  064C                     u3203:	
  4707  064C                     l2407:	
  4708  064C  0831               	movf	___flmul@b+1,w
  4709  064D  00B8               	movwf	??___flmul
  4710  064E  0838               	movf	??___flmul,w
  4711  064F  00F0               	movwf	__Umul8_16@multiplicand
  4712  0650  0836               	movf	___flmul@a+2,w
  4713  0651  120A  158A  21C2  120A  118A  	fcall	__Umul8_16
  4714  0656  0871               	movf	?__Umul8_16+1,w
  4715  0657  1283               	bcf	3,5	;RP0=0, select bank0
  4716  0658  1303               	bcf	3,6	;RP1=0, select bank0
  4717  0659  00C9               	movwf	___flmul@temp+1
  4718  065A  0870               	movf	?__Umul8_16,w
  4719  065B  00C8               	movwf	___flmul@temp
  4720  065C  0848               	movf	___flmul@temp,w
  4721  065D  00B8               	movwf	??___flmul
  4722  065E  0849               	movf	___flmul@temp+1,w
  4723  065F  00B9               	movwf	??___flmul+1
  4724  0660  01BA               	clrf	??___flmul+2
  4725  0661  01BB               	clrf	??___flmul+3
  4726  0662  0838               	movf	??___flmul,w
  4727  0663  07C4               	addwf	___flmul@prod,f
  4728  0664  0839               	movf	??___flmul+1,w
  4729  0665  1103               	clrz
  4730  0666  1803               	skipnc
  4731  0667  3E01               	addlw	1
  4732  0668  1903               	skipnz
  4733  0669  2E6B               	goto	u3211
  4734  066A  07C5               	addwf	___flmul@prod+1,f
  4735  066B                     u3211:	
  4736  066B  083A               	movf	??___flmul+2,w
  4737  066C  1103               	clrz
  4738  066D  1803               	skipnc
  4739  066E  3E01               	addlw	1
  4740  066F  1903               	skipnz
  4741  0670  2E72               	goto	u3212
  4742  0671  07C6               	addwf	___flmul@prod+2,f
  4743  0672                     u3212:	
  4744  0672  083B               	movf	??___flmul+3,w
  4745  0673  1103               	clrz
  4746  0674  1803               	skipnc
  4747  0675  3E01               	addlw	1
  4748  0676  1903               	skipnz
  4749  0677  2E79               	goto	u3213
  4750  0678  07C7               	addwf	___flmul@prod+3,f
  4751  0679                     u3213:	
  4752  0679                     l2409:	
  4753  0679  0832               	movf	___flmul@b+2,w
  4754  067A  00B8               	movwf	??___flmul
  4755  067B  0838               	movf	??___flmul,w
  4756  067C  00F0               	movwf	__Umul8_16@multiplicand
  4757  067D  0835               	movf	___flmul@a+1,w
  4758  067E  120A  158A  21C2  120A  118A  	fcall	__Umul8_16
  4759  0683  0871               	movf	?__Umul8_16+1,w
  4760  0684  1283               	bcf	3,5	;RP0=0, select bank0
  4761  0685  1303               	bcf	3,6	;RP1=0, select bank0
  4762  0686  00C9               	movwf	___flmul@temp+1
  4763  0687  0870               	movf	?__Umul8_16,w
  4764  0688  00C8               	movwf	___flmul@temp
  4765  0689                     l2411:	
  4766  0689  0848               	movf	___flmul@temp,w
  4767  068A  00B8               	movwf	??___flmul
  4768  068B  0849               	movf	___flmul@temp+1,w
  4769  068C  00B9               	movwf	??___flmul+1
  4770  068D  01BA               	clrf	??___flmul+2
  4771  068E  01BB               	clrf	??___flmul+3
  4772  068F  0838               	movf	??___flmul,w
  4773  0690  07C4               	addwf	___flmul@prod,f
  4774  0691  0839               	movf	??___flmul+1,w
  4775  0692  1103               	clrz
  4776  0693  1803               	skipnc
  4777  0694  3E01               	addlw	1
  4778  0695  1903               	skipnz
  4779  0696  2E98               	goto	u3221
  4780  0697  07C5               	addwf	___flmul@prod+1,f
  4781  0698                     u3221:	
  4782  0698  083A               	movf	??___flmul+2,w
  4783  0699  1103               	clrz
  4784  069A  1803               	skipnc
  4785  069B  3E01               	addlw	1
  4786  069C  1903               	skipnz
  4787  069D  2E9F               	goto	u3222
  4788  069E  07C6               	addwf	___flmul@prod+2,f
  4789  069F                     u3222:	
  4790  069F  083B               	movf	??___flmul+3,w
  4791  06A0  1103               	clrz
  4792  06A1  1803               	skipnc
  4793  06A2  3E01               	addlw	1
  4794  06A3  1903               	skipnz
  4795  06A4  2EA6               	goto	u3223
  4796  06A5  07C7               	addwf	___flmul@prod+3,f
  4797  06A6                     u3223:	
  4798  06A6  0832               	movf	___flmul@b+2,w
  4799  06A7  00B8               	movwf	??___flmul
  4800  06A8  0838               	movf	??___flmul,w
  4801  06A9  00F0               	movwf	__Umul8_16@multiplicand
  4802  06AA  0836               	movf	___flmul@a+2,w
  4803  06AB  120A  158A  21C2  120A  118A  	fcall	__Umul8_16
  4804  06B0  0871               	movf	?__Umul8_16+1,w
  4805  06B1  1283               	bcf	3,5	;RP0=0, select bank0
  4806  06B2  1303               	bcf	3,6	;RP1=0, select bank0
  4807  06B3  00C9               	movwf	___flmul@temp+1
  4808  06B4  0870               	movf	?__Umul8_16,w
  4809  06B5  00C8               	movwf	___flmul@temp
  4810  06B6                     l2413:	
  4811  06B6  0848               	movf	___flmul@temp,w
  4812  06B7  00B8               	movwf	??___flmul
  4813  06B8  0849               	movf	___flmul@temp+1,w
  4814  06B9  00B9               	movwf	??___flmul+1
  4815  06BA  01BA               	clrf	??___flmul+2
  4816  06BB  01BB               	clrf	??___flmul+3
  4817  06BC  3008               	movlw	8
  4818  06BD                     u3235:	
  4819  06BD  1003               	clrc
  4820  06BE  0DB8               	rlf	??___flmul,f
  4821  06BF  0DB9               	rlf	??___flmul+1,f
  4822  06C0  0DBA               	rlf	??___flmul+2,f
  4823  06C1  0DBB               	rlf	??___flmul+3,f
  4824  06C2                     u3230:	
  4825  06C2  3EFF               	addlw	-1
  4826  06C3  1D03               	skipz
  4827  06C4  2EBD               	goto	u3235
  4828  06C5  0838               	movf	??___flmul,w
  4829  06C6  07C4               	addwf	___flmul@prod,f
  4830  06C7  0839               	movf	??___flmul+1,w
  4831  06C8  1103               	clrz
  4832  06C9  1803               	skipnc
  4833  06CA  3E01               	addlw	1
  4834  06CB  1903               	skipnz
  4835  06CC  2ECE               	goto	u3241
  4836  06CD  07C5               	addwf	___flmul@prod+1,f
  4837  06CE                     u3241:	
  4838  06CE  083A               	movf	??___flmul+2,w
  4839  06CF  1103               	clrz
  4840  06D0  1803               	skipnc
  4841  06D1  3E01               	addlw	1
  4842  06D2  1903               	skipnz
  4843  06D3  2ED5               	goto	u3242
  4844  06D4  07C6               	addwf	___flmul@prod+2,f
  4845  06D5                     u3242:	
  4846  06D5  083B               	movf	??___flmul+3,w
  4847  06D6  1103               	clrz
  4848  06D7  1803               	skipnc
  4849  06D8  3E01               	addlw	1
  4850  06D9  1903               	skipnz
  4851  06DA  2EDC               	goto	u3243
  4852  06DB  07C7               	addwf	___flmul@prod+3,f
  4853  06DC                     u3243:	
  4854  06DC                     l2415:	
  4855  06DC  083E               	movf	___flmul@grs,w
  4856  06DD  00B8               	movwf	??___flmul
  4857  06DE  083F               	movf	___flmul@grs+1,w
  4858  06DF  00B9               	movwf	??___flmul+1
  4859  06E0  0840               	movf	___flmul@grs+2,w
  4860  06E1  00BA               	movwf	??___flmul+2
  4861  06E2  0841               	movf	___flmul@grs+3,w
  4862  06E3  00BB               	movwf	??___flmul+3
  4863  06E4  3018               	movlw	24
  4864  06E5                     u3255:	
  4865  06E5  1003               	clrc
  4866  06E6  0CBB               	rrf	??___flmul+3,f
  4867  06E7  0CBA               	rrf	??___flmul+2,f
  4868  06E8  0CB9               	rrf	??___flmul+1,f
  4869  06E9  0CB8               	rrf	??___flmul,f
  4870  06EA                     u3250:	
  4871  06EA  3EFF               	addlw	-1
  4872  06EB  1D03               	skipz
  4873  06EC  2EE5               	goto	u3255
  4874  06ED  0838               	movf	??___flmul,w
  4875  06EE  07C4               	addwf	___flmul@prod,f
  4876  06EF  0839               	movf	??___flmul+1,w
  4877  06F0  1103               	clrz
  4878  06F1  1803               	skipnc
  4879  06F2  3E01               	addlw	1
  4880  06F3  1903               	skipnz
  4881  06F4  2EF6               	goto	u3261
  4882  06F5  07C5               	addwf	___flmul@prod+1,f
  4883  06F6                     u3261:	
  4884  06F6  083A               	movf	??___flmul+2,w
  4885  06F7  1103               	clrz
  4886  06F8  1803               	skipnc
  4887  06F9  3E01               	addlw	1
  4888  06FA  1903               	skipnz
  4889  06FB  2EFD               	goto	u3262
  4890  06FC  07C6               	addwf	___flmul@prod+2,f
  4891  06FD                     u3262:	
  4892  06FD  083B               	movf	??___flmul+3,w
  4893  06FE  1103               	clrz
  4894  06FF  1803               	skipnc
  4895  0700  3E01               	addlw	1
  4896  0701  1903               	skipnz
  4897  0702  2F04               	goto	u3263
  4898  0703  07C7               	addwf	___flmul@prod+3,f
  4899  0704                     u3263:	
  4900  0704                     l2417:	
  4901  0704  3008               	movlw	8
  4902  0705  00B8               	movwf	??___flmul
  4903  0706                     u3275:	
  4904  0706  1003               	clrc
  4905  0707  0DBE               	rlf	___flmul@grs,f
  4906  0708  0DBF               	rlf	___flmul@grs+1,f
  4907  0709  0DC0               	rlf	___flmul@grs+2,f
  4908  070A  0DC1               	rlf	___flmul@grs+3,f
  4909  070B  0BB8               	decfsz	??___flmul,f
  4910  070C  2F06               	goto	u3275
  4911  070D                     l2419:	
  4912  070D  0843               	movf	___flmul@bexp,w
  4913  070E  0742               	addwf	___flmul@aexp,w
  4914  070F  00B8               	movwf	??___flmul
  4915  0710  01B9               	clrf	??___flmul+1
  4916  0711  0DB9               	rlf	??___flmul+1,f
  4917  0712  0838               	movf	??___flmul,w
  4918  0713  3E82               	addlw	130
  4919  0714  00C8               	movwf	___flmul@temp
  4920  0715  0839               	movf	??___flmul+1,w
  4921  0716  1803               	skipnc
  4922  0717  3E01               	addlw	1
  4923  0718  3EFF               	addlw	255
  4924  0719  00C9               	movwf	___flmul@temp+1
  4925  071A  2F38               	goto	l2431
  4926  071B                     l2421:	
  4927  071B  3001               	movlw	1
  4928  071C  00B8               	movwf	??___flmul
  4929  071D                     u3285:	
  4930  071D  1003               	clrc
  4931  071E  0DC4               	rlf	___flmul@prod,f
  4932  071F  0DC5               	rlf	___flmul@prod+1,f
  4933  0720  0DC6               	rlf	___flmul@prod+2,f
  4934  0721  0DC7               	rlf	___flmul@prod+3,f
  4935  0722  0BB8               	decfsz	??___flmul,f
  4936  0723  2F1D               	goto	u3285
  4937  0724                     l2423:	
  4938  0724  1FC1               	btfss	___flmul@grs+3,7
  4939  0725  2F27               	goto	u3291
  4940  0726  2F28               	goto	u3290
  4941  0727                     u3291:	
  4942  0727  2F29               	goto	l2427
  4943  0728                     u3290:	
  4944  0728                     l2425:	
  4945  0728  1444               	bsf	___flmul@prod,0
  4946  0729                     l2427:	
  4947  0729  3001               	movlw	1
  4948  072A  00B8               	movwf	??___flmul
  4949  072B                     u3305:	
  4950  072B  1003               	clrc
  4951  072C  0DBE               	rlf	___flmul@grs,f
  4952  072D  0DBF               	rlf	___flmul@grs+1,f
  4953  072E  0DC0               	rlf	___flmul@grs+2,f
  4954  072F  0DC1               	rlf	___flmul@grs+3,f
  4955  0730  0BB8               	decfsz	??___flmul,f
  4956  0731  2F2B               	goto	u3305
  4957  0732                     l2429:	
  4958  0732  30FF               	movlw	255
  4959  0733  07C8               	addwf	___flmul@temp,f
  4960  0734  1803               	skipnc
  4961  0735  0AC9               	incf	___flmul@temp+1,f
  4962  0736  30FF               	movlw	255
  4963  0737  07C9               	addwf	___flmul@temp+1,f
  4964  0738                     l2431:	
  4965  0738  1FC6               	btfss	___flmul@prod+2,7
  4966  0739  2F3B               	goto	u3311
  4967  073A  2F3C               	goto	u3310
  4968  073B                     u3311:	
  4969  073B  2F1B               	goto	l2421
  4970  073C                     u3310:	
  4971  073C                     l2433:	
  4972  073C  01C2               	clrf	___flmul@aexp
  4973  073D                     l2435:	
  4974  073D  1FC1               	btfss	___flmul@grs+3,7
  4975  073E  2F40               	goto	u3321
  4976  073F  2F41               	goto	u3320
  4977  0740                     u3321:	
  4978  0740  2F5D               	goto	l2443
  4979  0741                     u3320:	
  4980  0741                     l2437:	
  4981  0741  30FF               	movlw	255
  4982  0742  053E               	andwf	___flmul@grs,w
  4983  0743  00B8               	movwf	??___flmul
  4984  0744  30FF               	movlw	255
  4985  0745  053F               	andwf	___flmul@grs+1,w
  4986  0746  00B9               	movwf	??___flmul+1
  4987  0747  30FF               	movlw	255
  4988  0748  0540               	andwf	___flmul@grs+2,w
  4989  0749  00BA               	movwf	??___flmul+2
  4990  074A  307F               	movlw	127
  4991  074B  0541               	andwf	___flmul@grs+3,w
  4992  074C  00BB               	movwf	??___flmul+3
  4993  074D  083B               	movf	??___flmul+3,w
  4994  074E  043A               	iorwf	??___flmul+2,w
  4995  074F  0439               	iorwf	??___flmul+1,w
  4996  0750  0438               	iorwf	??___flmul,w
  4997  0751  1903               	skipnz
  4998  0752  2F54               	goto	u3331
  4999  0753  2F55               	goto	u3330
  5000  0754                     u3331:	
  5001  0754  2F58               	goto	l664
  5002  0755                     u3330:	
  5003  0755                     l2439:	
  5004  0755  01C2               	clrf	___flmul@aexp
  5005  0756  0AC2               	incf	___flmul@aexp,f
  5006  0757  2F5D               	goto	l2443
  5007  0758                     l664:	
  5008  0758  1C44               	btfss	___flmul@prod,0
  5009  0759  2F5B               	goto	u3341
  5010  075A  2F5C               	goto	u3340
  5011  075B                     u3341:	
  5012  075B  2F5D               	goto	l2443
  5013  075C                     u3340:	
  5014  075C  2F55               	goto	l2439
  5015  075D                     l2443:	
  5016  075D  0842               	movf	___flmul@aexp,w
  5017  075E  1903               	btfsc	3,2
  5018  075F  2F61               	goto	u3351
  5019  0760  2F62               	goto	u3350
  5020  0761                     u3351:	
  5021  0761  2F93               	goto	l2453
  5022  0762                     u3350:	
  5023  0762                     l2445:	
  5024  0762  3001               	movlw	1
  5025  0763  07C4               	addwf	___flmul@prod,f
  5026  0764  3000               	movlw	0
  5027  0765  1803               	skipnc
  5028  0766  3001               	movlw	1
  5029  0767  07C5               	addwf	___flmul@prod+1,f
  5030  0768  3000               	movlw	0
  5031  0769  1803               	skipnc
  5032  076A  3001               	movlw	1
  5033  076B  07C6               	addwf	___flmul@prod+2,f
  5034  076C  3000               	movlw	0
  5035  076D  1803               	skipnc
  5036  076E  3001               	movlw	1
  5037  076F  07C7               	addwf	___flmul@prod+3,f
  5038  0770                     l2447:	
  5039  0770  1C47               	btfss	___flmul@prod+3,0
  5040  0771  2F73               	goto	u3361
  5041  0772  2F74               	goto	u3360
  5042  0773                     u3361:	
  5043  0773  2F93               	goto	l2453
  5044  0774                     u3360:	
  5045  0774                     l2449:	
  5046  0774  0844               	movf	___flmul@prod,w
  5047  0775  00B8               	movwf	??___flmul
  5048  0776  0845               	movf	___flmul@prod+1,w
  5049  0777  00B9               	movwf	??___flmul+1
  5050  0778  0846               	movf	___flmul@prod+2,w
  5051  0779  00BA               	movwf	??___flmul+2
  5052  077A  0847               	movf	___flmul@prod+3,w
  5053  077B  00BB               	movwf	??___flmul+3
  5054  077C  3001               	movlw	1
  5055  077D  00BC               	movwf	??___flmul+4
  5056  077E                     u3375:	
  5057  077E  0D3B               	rlf	??___flmul+3,w
  5058  077F  0CBB               	rrf	??___flmul+3,f
  5059  0780  0CBA               	rrf	??___flmul+2,f
  5060  0781  0CB9               	rrf	??___flmul+1,f
  5061  0782  0CB8               	rrf	??___flmul,f
  5062  0783                     u3370:	
  5063  0783  0BBC               	decfsz	??___flmul+4,f
  5064  0784  2F7E               	goto	u3375
  5065  0785  083B               	movf	??___flmul+3,w
  5066  0786  00C7               	movwf	___flmul@prod+3
  5067  0787  083A               	movf	??___flmul+2,w
  5068  0788  00C6               	movwf	___flmul@prod+2
  5069  0789  0839               	movf	??___flmul+1,w
  5070  078A  00C5               	movwf	___flmul@prod+1
  5071  078B  0838               	movf	??___flmul,w
  5072  078C  00C4               	movwf	___flmul@prod
  5073  078D                     l2451:	
  5074  078D  3001               	movlw	1
  5075  078E  07C8               	addwf	___flmul@temp,f
  5076  078F  1803               	skipnc
  5077  0790  0AC9               	incf	___flmul@temp+1,f
  5078  0791  3000               	movlw	0
  5079  0792  07C9               	addwf	___flmul@temp+1,f
  5080  0793                     l2453:	
  5081  0793  0849               	movf	___flmul@temp+1,w
  5082  0794  3A80               	xorlw	128
  5083  0795  00FF               	movwf	btemp+1
  5084  0796  3080               	movlw	128
  5085  0797  027F               	subwf	btemp+1,w
  5086  0798  1D03               	skipz
  5087  0799  2F9C               	goto	u3385
  5088  079A  30FF               	movlw	255
  5089  079B  0248               	subwf	___flmul@temp,w
  5090  079C                     u3385:	
  5091  079C  1C03               	skipc
  5092  079D  2F9F               	goto	u3381
  5093  079E  2FA0               	goto	u3380
  5094  079F                     u3381:	
  5095  079F  2FAB               	goto	l2457
  5096  07A0                     u3380:	
  5097  07A0                     l2455:	
  5098  07A0  307F               	movlw	127
  5099  07A1  1283               	bcf	3,5	;RP0=0, select bank0
  5100  07A2  1303               	bcf	3,6	;RP1=0, select bank0
  5101  07A3  00C7               	movwf	___flmul@prod+3
  5102  07A4  3080               	movlw	128
  5103  07A5  00C6               	movwf	___flmul@prod+2
  5104  07A6  3000               	movlw	0
  5105  07A7  00C5               	movwf	___flmul@prod+1
  5106  07A8  3000               	movlw	0
  5107  07A9  00C4               	movwf	___flmul@prod
  5108  07AA  2FE0               	goto	l670
  5109  07AB                     l2457:	
  5110  07AB  1283               	bcf	3,5	;RP0=0, select bank0
  5111  07AC  1303               	bcf	3,6	;RP1=0, select bank0
  5112  07AD  0849               	movf	___flmul@temp+1,w
  5113  07AE  3A80               	xorlw	128
  5114  07AF  00FF               	movwf	btemp+1
  5115  07B0  3080               	movlw	128
  5116  07B1  027F               	subwf	btemp+1,w
  5117  07B2  1D03               	skipz
  5118  07B3  2FB6               	goto	u3395
  5119  07B4  3001               	movlw	1
  5120  07B5  0248               	subwf	___flmul@temp,w
  5121  07B6                     u3395:	
  5122  07B6  1803               	skipnc
  5123  07B7  2FB9               	goto	u3391
  5124  07B8  2FBA               	goto	u3390
  5125  07B9                     u3391:	
  5126  07B9  2FC6               	goto	l2463
  5127  07BA                     u3390:	
  5128  07BA                     l2459:	
  5129  07BA  3000               	movlw	0
  5130  07BB  1283               	bcf	3,5	;RP0=0, select bank0
  5131  07BC  1303               	bcf	3,6	;RP1=0, select bank0
  5132  07BD  00C7               	movwf	___flmul@prod+3
  5133  07BE  3000               	movlw	0
  5134  07BF  00C6               	movwf	___flmul@prod+2
  5135  07C0  3000               	movlw	0
  5136  07C1  00C5               	movwf	___flmul@prod+1
  5137  07C2  3000               	movlw	0
  5138  07C3  00C4               	movwf	___flmul@prod
  5139  07C4                     l2461:	
  5140  07C4  01BD               	clrf	___flmul@sign
  5141  07C5  2FE0               	goto	l670
  5142  07C6                     l2463:	
  5143  07C6  1283               	bcf	3,5	;RP0=0, select bank0
  5144  07C7  1303               	bcf	3,6	;RP1=0, select bank0
  5145  07C8  0848               	movf	___flmul@temp,w
  5146  07C9  00B8               	movwf	??___flmul
  5147  07CA  0838               	movf	??___flmul,w
  5148  07CB  00C3               	movwf	___flmul@bexp
  5149  07CC  30FF               	movlw	255
  5150  07CD  05C4               	andwf	___flmul@prod,f
  5151  07CE  30FF               	movlw	255
  5152  07CF  05C5               	andwf	___flmul@prod+1,f
  5153  07D0  307F               	movlw	127
  5154  07D1  05C6               	andwf	___flmul@prod+2,f
  5155  07D2  3000               	movlw	0
  5156  07D3  05C7               	andwf	___flmul@prod+3,f
  5157  07D4                     l2465:	
  5158  07D4  1C43               	btfss	___flmul@bexp,0
  5159  07D5  2FD7               	goto	u3401
  5160  07D6  2FD8               	goto	u3400
  5161  07D7                     u3401:	
  5162  07D7  2FD9               	goto	l2469
  5163  07D8                     u3400:	
  5164  07D8                     l2467:	
  5165  07D8  17C6               	bsf	___flmul@prod+2,7
  5166  07D9                     l2469:	
  5167  07D9  0843               	movf	___flmul@bexp,w
  5168  07DA  00B8               	movwf	??___flmul
  5169  07DB  1003               	clrc
  5170  07DC  0C38               	rrf	??___flmul,w
  5171  07DD  00B9               	movwf	??___flmul+1
  5172  07DE  0839               	movf	??___flmul+1,w
  5173  07DF  00C7               	movwf	___flmul@prod+3
  5174  07E0                     l670:	
  5175  07E0  083D               	movf	___flmul@sign,w
  5176  07E1  00B8               	movwf	??___flmul
  5177  07E2  0838               	movf	??___flmul,w
  5178  07E3  04C7               	iorwf	___flmul@prod+3,f
  5179  07E4                     l2471:	
  5180  07E4  0847               	movf	___flmul@prod+3,w
  5181  07E5  00B3               	movwf	?___flmul+3
  5182  07E6  0846               	movf	___flmul@prod+2,w
  5183  07E7  00B2               	movwf	?___flmul+2
  5184  07E8  0845               	movf	___flmul@prod+1,w
  5185  07E9  00B1               	movwf	?___flmul+1
  5186  07EA  0844               	movf	___flmul@prod,w
  5187  07EB  00B0               	movwf	?___flmul
  5188  07EC                     l658:	
  5189  07EC  0008               	return
  5190  07ED                     __end_of___flmul:	
  5191                           
  5192                           	psect	text16
  5193  09C2                     __ptext16:	
  5194 ;; *************** function __Umul8_16 *****************
  5195 ;; Defined at:
  5196 ;;		line 4 in file "C:\Program Files (x86)\Microchip\xc8\v2.10\pic\sources\c90\common\Umul8_16.c"
  5197 ;; Parameters:    Size  Location     Type
  5198 ;;  multiplier      1    wreg     unsigned char 
  5199 ;;  multiplicand    1    0[COMMON] unsigned char 
  5200 ;; Auto vars:     Size  Location     Type
  5201 ;;  multiplier      1    8[COMMON] unsigned char 
  5202 ;;  word_mpld       2    6[COMMON] unsigned int 
  5203 ;;  product         2    4[COMMON] unsigned int 
  5204 ;; Return value:  Size  Location     Type
  5205 ;;                  2    0[COMMON] unsigned int 
  5206 ;; Registers used:
  5207 ;;		wreg, status,2, status,0
  5208 ;; Tracked objects:
  5209 ;;		On entry : 0/0
  5210 ;;		On exit  : 0/0
  5211 ;;		Unchanged: 0/0
  5212 ;; Data sizes:     COMMON   BANK0   BANK1   BANK3   BANK2
  5213 ;;      Params:         2       0       0       0       0
  5214 ;;      Locals:         5       0       0       0       0
  5215 ;;      Temps:          2       0       0       0       0
  5216 ;;      Totals:         9       0       0       0       0
  5217 ;;Total ram usage:        9 bytes
  5218 ;; Hardware stack levels used:    1
  5219 ;; This function calls:
  5220 ;;		Nothing
  5221 ;; This function is called by:
  5222 ;;		___flmul
  5223 ;; This function uses a non-reentrant model
  5224 ;;
  5225                           
  5226                           
  5227                           ;psect for function __Umul8_16
  5228  09C2                     __Umul8_16:	
  5229                           
  5230                           ;incstack = 0
  5231                           ; Regs used in __Umul8_16: [wreg+status,2+status,0]
  5232                           ;__Umul8_16@multiplier stored from wreg
  5233  09C2  00F8               	movwf	__Umul8_16@multiplier
  5234  09C3                     l2065:	
  5235  09C3  01F4               	clrf	__Umul8_16@product
  5236  09C4  01F5               	clrf	__Umul8_16@product+1
  5237  09C5                     l2067:	
  5238  09C5  0870               	movf	__Umul8_16@multiplicand,w
  5239  09C6  00F2               	movwf	??__Umul8_16
  5240  09C7  01F3               	clrf	??__Umul8_16+1
  5241  09C8  0872               	movf	??__Umul8_16,w
  5242  09C9  00F6               	movwf	__Umul8_16@word_mpld
  5243  09CA  0873               	movf	??__Umul8_16+1,w
  5244  09CB  00F7               	movwf	__Umul8_16@word_mpld+1
  5245  09CC                     l2069:	
  5246  09CC  1C78               	btfss	__Umul8_16@multiplier,0
  5247  09CD  29CF               	goto	u2581
  5248  09CE  29D0               	goto	u2580
  5249  09CF                     u2581:	
  5250  09CF  29D6               	goto	l715
  5251  09D0                     u2580:	
  5252  09D0                     l2071:	
  5253  09D0  0876               	movf	__Umul8_16@word_mpld,w
  5254  09D1  07F4               	addwf	__Umul8_16@product,f
  5255  09D2  1803               	skipnc
  5256  09D3  0AF5               	incf	__Umul8_16@product+1,f
  5257  09D4  0877               	movf	__Umul8_16@word_mpld+1,w
  5258  09D5  07F5               	addwf	__Umul8_16@product+1,f
  5259  09D6                     l715:	
  5260  09D6  3001               	movlw	1
  5261  09D7                     u2595:	
  5262  09D7  1003               	clrc
  5263  09D8  0DF6               	rlf	__Umul8_16@word_mpld,f
  5264  09D9  0DF7               	rlf	__Umul8_16@word_mpld+1,f
  5265  09DA  3EFF               	addlw	-1
  5266  09DB  1D03               	skipz
  5267  09DC  29D7               	goto	u2595
  5268  09DD  1003               	clrc
  5269  09DE  0CF8               	rrf	__Umul8_16@multiplier,f
  5270  09DF                     l2073:	
  5271  09DF  0878               	movf	__Umul8_16@multiplier,w
  5272  09E0  1D03               	btfss	3,2
  5273  09E1  29E3               	goto	u2601
  5274  09E2  29E4               	goto	u2600
  5275  09E3                     u2601:	
  5276  09E3  29CC               	goto	l2069
  5277  09E4                     u2600:	
  5278  09E4                     l2075:	
  5279  09E4  0875               	movf	__Umul8_16@product+1,w
  5280  09E5  00F1               	movwf	?__Umul8_16+1
  5281  09E6  0874               	movf	__Umul8_16@product,w
  5282  09E7  00F0               	movwf	?__Umul8_16
  5283  09E8                     l717:	
  5284  09E8  0008               	return
  5285  09E9                     __end_of__Umul8_16:	
  5286                           
  5287                           	psect	text17
  5288  0017                     __ptext17:	
  5289 ;; *************** function ___fldiv *****************
  5290 ;; Defined at:
  5291 ;;		line 8 in file "C:\Program Files (x86)\Microchip\xc8\v2.10\pic\sources\c90\common\sprcdiv.c"
  5292 ;; Parameters:    Size  Location     Type
  5293 ;;  a               4   42[BANK0 ] unsigned int 
  5294 ;;  b               4   46[BANK0 ] unsigned int 
  5295 ;; Auto vars:     Size  Location     Type
  5296 ;;  grs             4   62[BANK0 ] unsigned long 
  5297 ;;  rem             4   55[BANK0 ] unsigned long 
  5298 ;;  new_exp         2   60[BANK0 ] int 
  5299 ;;  aexp            1   67[BANK0 ] unsigned char 
  5300 ;;  bexp            1   66[BANK0 ] unsigned char 
  5301 ;;  sign            1   59[BANK0 ] unsigned char 
  5302 ;; Return value:  Size  Location     Type
  5303 ;;                  4   42[BANK0 ] unsigned char 
  5304 ;; Registers used:
  5305 ;;		wreg, status,2, status,0, btemp+1
  5306 ;; Tracked objects:
  5307 ;;		On entry : 0/0
  5308 ;;		On exit  : 0/0
  5309 ;;		Unchanged: 0/0
  5310 ;; Data sizes:     COMMON   BANK0   BANK1   BANK3   BANK2
  5311 ;;      Params:         0       8       0       0       0
  5312 ;;      Locals:         0      13       0       0       0
  5313 ;;      Temps:          0       5       0       0       0
  5314 ;;      Totals:         0      26       0       0       0
  5315 ;;Total ram usage:       26 bytes
  5316 ;; Hardware stack levels used:    1
  5317 ;; This function calls:
  5318 ;;		Nothing
  5319 ;; This function is called by:
  5320 ;;		_main
  5321 ;; This function uses a non-reentrant model
  5322 ;;
  5323                           
  5324                           
  5325                           ;psect for function ___fldiv
  5326  0017                     ___fldiv:	
  5327  0017                     l2193:	
  5328                           ;incstack = 0
  5329                           ; Regs used in ___fldiv: [wreg+status,2+status,0+btemp+1]
  5330                           
  5331  0017  1283               	bcf	3,5	;RP0=0, select bank0
  5332  0018  1303               	bcf	3,6	;RP1=0, select bank0
  5333  0019  0851               	movf	___fldiv@b+3,w
  5334  001A  3980               	andlw	128
  5335  001B  00D2               	movwf	??___fldiv
  5336  001C  0852               	movf	??___fldiv,w
  5337  001D  00DB               	movwf	___fldiv@sign
  5338  001E                     l2195:	
  5339  001E  0851               	movf	___fldiv@b+3,w
  5340  001F  00D2               	movwf	??___fldiv
  5341  0020  0752               	addwf	??___fldiv,w
  5342  0021  00D3               	movwf	??___fldiv+1
  5343  0022  0853               	movf	??___fldiv+1,w
  5344  0023  00E2               	movwf	___fldiv@bexp
  5345  0024                     l2197:	
  5346  0024  1FD0               	btfss	___fldiv@b+2,7
  5347  0025  2827               	goto	u2751
  5348  0026  2828               	goto	u2750
  5349  0027                     u2751:	
  5350  0027  2829               	goto	l2201
  5351  0028                     u2750:	
  5352  0028                     l2199:	
  5353  0028  1462               	bsf	___fldiv@bexp,0
  5354  0029                     l2201:	
  5355  0029  0862               	movf	___fldiv@bexp,w
  5356  002A  1903               	btfsc	3,2
  5357  002B  282D               	goto	u2761
  5358  002C  282E               	goto	u2760
  5359  002D                     u2761:	
  5360  002D  283E               	goto	l2211
  5361  002E                     u2760:	
  5362  002E                     l2203:	
  5363  002E  0A62               	incf	___fldiv@bexp,w
  5364  002F  1D03               	btfss	3,2
  5365  0030  2832               	goto	u2771
  5366  0031  2833               	goto	u2770
  5367  0032                     u2771:	
  5368  0032  283B               	goto	l2207
  5369  0033                     u2770:	
  5370  0033                     l2205:	
  5371  0033  3000               	movlw	0
  5372  0034  00D1               	movwf	___fldiv@b+3
  5373  0035  3000               	movlw	0
  5374  0036  00D0               	movwf	___fldiv@b+2
  5375  0037  3000               	movlw	0
  5376  0038  00CF               	movwf	___fldiv@b+1
  5377  0039  3000               	movlw	0
  5378  003A  00CE               	movwf	___fldiv@b
  5379  003B                     l2207:	
  5380  003B  17D0               	bsf	___fldiv@b+2,7
  5381  003C                     l2209:	
  5382  003C  01D1               	clrf	___fldiv@b+3
  5383  003D  2846               	goto	l2213
  5384  003E                     l2211:	
  5385  003E  3000               	movlw	0
  5386  003F  00D1               	movwf	___fldiv@b+3
  5387  0040  3000               	movlw	0
  5388  0041  00D0               	movwf	___fldiv@b+2
  5389  0042  3000               	movlw	0
  5390  0043  00CF               	movwf	___fldiv@b+1
  5391  0044  3000               	movlw	0
  5392  0045  00CE               	movwf	___fldiv@b
  5393  0046                     l2213:	
  5394  0046  084D               	movf	___fldiv@a+3,w
  5395  0047  3980               	andlw	128
  5396  0048  00D2               	movwf	??___fldiv
  5397  0049  0852               	movf	??___fldiv,w
  5398  004A  06DB               	xorwf	___fldiv@sign,f
  5399  004B                     l2215:	
  5400  004B  084D               	movf	___fldiv@a+3,w
  5401  004C  00D2               	movwf	??___fldiv
  5402  004D  0752               	addwf	??___fldiv,w
  5403  004E  00D3               	movwf	??___fldiv+1
  5404  004F  0853               	movf	??___fldiv+1,w
  5405  0050  00E3               	movwf	___fldiv@aexp
  5406  0051                     l2217:	
  5407  0051  1FCC               	btfss	___fldiv@a+2,7
  5408  0052  2854               	goto	u2781
  5409  0053  2855               	goto	u2780
  5410  0054                     u2781:	
  5411  0054  2856               	goto	l2221
  5412  0055                     u2780:	
  5413  0055                     l2219:	
  5414  0055  1463               	bsf	___fldiv@aexp,0
  5415  0056                     l2221:	
  5416  0056  0863               	movf	___fldiv@aexp,w
  5417  0057  1903               	btfsc	3,2
  5418  0058  285A               	goto	u2791
  5419  0059  285B               	goto	u2790
  5420  005A                     u2791:	
  5421  005A  286B               	goto	l2231
  5422  005B                     u2790:	
  5423  005B                     l2223:	
  5424  005B  0A63               	incf	___fldiv@aexp,w
  5425  005C  1D03               	btfss	3,2
  5426  005D  285F               	goto	u2801
  5427  005E  2860               	goto	u2800
  5428  005F                     u2801:	
  5429  005F  2868               	goto	l2227
  5430  0060                     u2800:	
  5431  0060                     l2225:	
  5432  0060  3000               	movlw	0
  5433  0061  00CD               	movwf	___fldiv@a+3
  5434  0062  3000               	movlw	0
  5435  0063  00CC               	movwf	___fldiv@a+2
  5436  0064  3000               	movlw	0
  5437  0065  00CB               	movwf	___fldiv@a+1
  5438  0066  3000               	movlw	0
  5439  0067  00CA               	movwf	___fldiv@a
  5440  0068                     l2227:	
  5441  0068  17CC               	bsf	___fldiv@a+2,7
  5442  0069                     l2229:	
  5443  0069  01CD               	clrf	___fldiv@a+3
  5444  006A  2873               	goto	l618
  5445  006B                     l2231:	
  5446  006B  3000               	movlw	0
  5447  006C  00CD               	movwf	___fldiv@a+3
  5448  006D  3000               	movlw	0
  5449  006E  00CC               	movwf	___fldiv@a+2
  5450  006F  3000               	movlw	0
  5451  0070  00CB               	movwf	___fldiv@a+1
  5452  0071  3000               	movlw	0
  5453  0072  00CA               	movwf	___fldiv@a
  5454  0073                     l618:	
  5455  0073  084D               	movf	___fldiv@a+3,w
  5456  0074  044C               	iorwf	___fldiv@a+2,w
  5457  0075  044B               	iorwf	___fldiv@a+1,w
  5458  0076  044A               	iorwf	___fldiv@a,w
  5459  0077  1D03               	skipz
  5460  0078  287A               	goto	u2811
  5461  0079  287B               	goto	u2810
  5462  007A                     u2811:	
  5463  007A  2894               	goto	l2241
  5464  007B                     u2810:	
  5465  007B                     l2233:	
  5466  007B  3000               	movlw	0
  5467  007C  00D1               	movwf	___fldiv@b+3
  5468  007D  3000               	movlw	0
  5469  007E  00D0               	movwf	___fldiv@b+2
  5470  007F  3000               	movlw	0
  5471  0080  00CF               	movwf	___fldiv@b+1
  5472  0081  3000               	movlw	0
  5473  0082  00CE               	movwf	___fldiv@b
  5474  0083  3080               	movlw	128
  5475  0084  04D0               	iorwf	___fldiv@b+2,f
  5476  0085  307F               	movlw	127
  5477  0086  04D1               	iorwf	___fldiv@b+3,f
  5478  0087                     l2235:	
  5479  0087  085B               	movf	___fldiv@sign,w
  5480  0088  00D2               	movwf	??___fldiv
  5481  0089  0852               	movf	??___fldiv,w
  5482  008A  04D1               	iorwf	___fldiv@b+3,f
  5483  008B                     l2237:	
  5484  008B  0851               	movf	___fldiv@b+3,w
  5485  008C  00CD               	movwf	?___fldiv+3
  5486  008D  0850               	movf	___fldiv@b+2,w
  5487  008E  00CC               	movwf	?___fldiv+2
  5488  008F  084F               	movf	___fldiv@b+1,w
  5489  0090  00CB               	movwf	?___fldiv+1
  5490  0091  084E               	movf	___fldiv@b,w
  5491  0092  00CA               	movwf	?___fldiv
  5492  0093  29F3               	goto	l620
  5493  0094                     l2241:	
  5494  0094  0862               	movf	___fldiv@bexp,w
  5495  0095  1D03               	btfss	3,2
  5496  0096  2898               	goto	u2821
  5497  0097  2899               	goto	u2820
  5498  0098                     u2821:	
  5499  0098  28A2               	goto	l2247
  5500  0099                     u2820:	
  5501  0099                     l2243:	
  5502  0099  3000               	movlw	0
  5503  009A  00CD               	movwf	?___fldiv+3
  5504  009B  3000               	movlw	0
  5505  009C  00CC               	movwf	?___fldiv+2
  5506  009D  3000               	movlw	0
  5507  009E  00CB               	movwf	?___fldiv+1
  5508  009F  3000               	movlw	0
  5509  00A0  00CA               	movwf	?___fldiv
  5510  00A1  29F3               	goto	l620
  5511  00A2                     l2247:	
  5512  00A2  0862               	movf	___fldiv@bexp,w
  5513  00A3  00D2               	movwf	??___fldiv
  5514  00A4  01D3               	clrf	??___fldiv+1
  5515  00A5  0853               	movf	??___fldiv+1,w
  5516  00A6  00D5               	movwf	??___fldiv+3
  5517  00A7  0863               	movf	___fldiv@aexp,w
  5518  00A8  0252               	subwf	??___fldiv,w
  5519  00A9  00D4               	movwf	??___fldiv+2
  5520  00AA  1C03               	skipc
  5521  00AB  03D5               	decf	??___fldiv+3,f
  5522  00AC  0854               	movf	??___fldiv+2,w
  5523  00AD  3E7F               	addlw	127
  5524  00AE  00DC               	movwf	___fldiv@new_exp
  5525  00AF  0855               	movf	??___fldiv+3,w
  5526  00B0  1803               	skipnc
  5527  00B1  3E01               	addlw	1
  5528  00B2  3E00               	addlw	0
  5529  00B3  00DD               	movwf	___fldiv@new_exp+1
  5530  00B4                     l2249:	
  5531  00B4  0851               	movf	___fldiv@b+3,w
  5532  00B5  00DA               	movwf	___fldiv@rem+3
  5533  00B6  0850               	movf	___fldiv@b+2,w
  5534  00B7  00D9               	movwf	___fldiv@rem+2
  5535  00B8  084F               	movf	___fldiv@b+1,w
  5536  00B9  00D8               	movwf	___fldiv@rem+1
  5537  00BA  084E               	movf	___fldiv@b,w
  5538  00BB  00D7               	movwf	___fldiv@rem
  5539  00BC                     l2251:	
  5540  00BC  3000               	movlw	0
  5541  00BD  00D1               	movwf	___fldiv@b+3
  5542  00BE  3000               	movlw	0
  5543  00BF  00D0               	movwf	___fldiv@b+2
  5544  00C0  3000               	movlw	0
  5545  00C1  00CF               	movwf	___fldiv@b+1
  5546  00C2  3000               	movlw	0
  5547  00C3  00CE               	movwf	___fldiv@b
  5548  00C4                     l2253:	
  5549  00C4  3000               	movlw	0
  5550  00C5  00E1               	movwf	___fldiv@grs+3
  5551  00C6  3000               	movlw	0
  5552  00C7  00E0               	movwf	___fldiv@grs+2
  5553  00C8  3000               	movlw	0
  5554  00C9  00DF               	movwf	___fldiv@grs+1
  5555  00CA  3000               	movlw	0
  5556  00CB  00DE               	movwf	___fldiv@grs
  5557  00CC                     l2255:	
  5558  00CC  01E3               	clrf	___fldiv@aexp
  5559  00CD  2918               	goto	l2275
  5560  00CE                     l2257:	
  5561  00CE  0863               	movf	___fldiv@aexp,w
  5562  00CF  1903               	btfsc	3,2
  5563  00D0  28D2               	goto	u2831
  5564  00D1  28D3               	goto	u2830
  5565  00D2                     u2831:	
  5566  00D2  28F3               	goto	l2267
  5567  00D3                     u2830:	
  5568  00D3                     l2259:	
  5569  00D3  3001               	movlw	1
  5570  00D4  00D2               	movwf	??___fldiv
  5571  00D5                     u2845:	
  5572  00D5  1003               	clrc
  5573  00D6  0DD7               	rlf	___fldiv@rem,f
  5574  00D7  0DD8               	rlf	___fldiv@rem+1,f
  5575  00D8  0DD9               	rlf	___fldiv@rem+2,f
  5576  00D9  0DDA               	rlf	___fldiv@rem+3,f
  5577  00DA  0BD2               	decfsz	??___fldiv,f
  5578  00DB  28D5               	goto	u2845
  5579  00DC  3001               	movlw	1
  5580  00DD  00D2               	movwf	??___fldiv
  5581  00DE                     u2855:	
  5582  00DE  1003               	clrc
  5583  00DF  0DCE               	rlf	___fldiv@b,f
  5584  00E0  0DCF               	rlf	___fldiv@b+1,f
  5585  00E1  0DD0               	rlf	___fldiv@b+2,f
  5586  00E2  0DD1               	rlf	___fldiv@b+3,f
  5587  00E3  0BD2               	decfsz	??___fldiv,f
  5588  00E4  28DE               	goto	u2855
  5589  00E5                     l2261:	
  5590  00E5  1FE1               	btfss	___fldiv@grs+3,7
  5591  00E6  28E8               	goto	u2861
  5592  00E7  28E9               	goto	u2860
  5593  00E8                     u2861:	
  5594  00E8  28EA               	goto	l2265
  5595  00E9                     u2860:	
  5596  00E9                     l2263:	
  5597  00E9  144E               	bsf	___fldiv@b,0
  5598  00EA                     l2265:	
  5599  00EA  3001               	movlw	1
  5600  00EB  00D2               	movwf	??___fldiv
  5601  00EC                     u2875:	
  5602  00EC  1003               	clrc
  5603  00ED  0DDE               	rlf	___fldiv@grs,f
  5604  00EE  0DDF               	rlf	___fldiv@grs+1,f
  5605  00EF  0DE0               	rlf	___fldiv@grs+2,f
  5606  00F0  0DE1               	rlf	___fldiv@grs+3,f
  5607  00F1  0BD2               	decfsz	??___fldiv,f
  5608  00F2  28EC               	goto	u2875
  5609  00F3                     l2267:	
  5610  00F3  084D               	movf	___fldiv@a+3,w
  5611  00F4  025A               	subwf	___fldiv@rem+3,w
  5612  00F5  1D03               	skipz
  5613  00F6  2901               	goto	u2885
  5614  00F7  084C               	movf	___fldiv@a+2,w
  5615  00F8  0259               	subwf	___fldiv@rem+2,w
  5616  00F9  1D03               	skipz
  5617  00FA  2901               	goto	u2885
  5618  00FB  084B               	movf	___fldiv@a+1,w
  5619  00FC  0258               	subwf	___fldiv@rem+1,w
  5620  00FD  1D03               	skipz
  5621  00FE  2901               	goto	u2885
  5622  00FF  084A               	movf	___fldiv@a,w
  5623  0100  0257               	subwf	___fldiv@rem,w
  5624  0101                     u2885:	
  5625  0101  1C03               	skipc
  5626  0102  2904               	goto	u2881
  5627  0103  2905               	goto	u2880
  5628  0104                     u2881:	
  5629  0104  2914               	goto	l2273
  5630  0105                     u2880:	
  5631  0105                     l2269:	
  5632  0105  1761               	bsf	___fldiv@grs+3,6
  5633  0106                     l2271:	
  5634  0106  084A               	movf	___fldiv@a,w
  5635  0107  02D7               	subwf	___fldiv@rem,f
  5636  0108  084B               	movf	___fldiv@a+1,w
  5637  0109  1C03               	skipc
  5638  010A  0F4B               	incfsz	___fldiv@a+1,w
  5639  010B  02D8               	subwf	___fldiv@rem+1,f
  5640  010C  084C               	movf	___fldiv@a+2,w
  5641  010D  1C03               	skipc
  5642  010E  0F4C               	incfsz	___fldiv@a+2,w
  5643  010F  02D9               	subwf	___fldiv@rem+2,f
  5644  0110  084D               	movf	___fldiv@a+3,w
  5645  0111  1C03               	skipc
  5646  0112  0F4D               	incfsz	___fldiv@a+3,w
  5647  0113  02DA               	subwf	___fldiv@rem+3,f
  5648  0114                     l2273:	
  5649  0114  3001               	movlw	1
  5650  0115  00D2               	movwf	??___fldiv
  5651  0116  0852               	movf	??___fldiv,w
  5652  0117  07E3               	addwf	___fldiv@aexp,f
  5653  0118                     l2275:	
  5654  0118  301A               	movlw	26
  5655  0119  0263               	subwf	___fldiv@aexp,w
  5656  011A  1C03               	skipc
  5657  011B  291D               	goto	u2891
  5658  011C  291E               	goto	u2890
  5659  011D                     u2891:	
  5660  011D  28CE               	goto	l2257
  5661  011E                     u2890:	
  5662  011E                     l2277:	
  5663  011E  085A               	movf	___fldiv@rem+3,w
  5664  011F  0459               	iorwf	___fldiv@rem+2,w
  5665  0120  0458               	iorwf	___fldiv@rem+1,w
  5666  0121  0457               	iorwf	___fldiv@rem,w
  5667  0122  1903               	skipnz
  5668  0123  2925               	goto	u2901
  5669  0124  2926               	goto	u2900
  5670  0125                     u2901:	
  5671  0125  2945               	goto	l2291
  5672  0126                     u2900:	
  5673  0126                     l2279:	
  5674  0126  145E               	bsf	___fldiv@grs,0
  5675  0127  2945               	goto	l2291
  5676  0128                     l2281:	
  5677  0128  3001               	movlw	1
  5678  0129  00D2               	movwf	??___fldiv
  5679  012A                     u2915:	
  5680  012A  1003               	clrc
  5681  012B  0DCE               	rlf	___fldiv@b,f
  5682  012C  0DCF               	rlf	___fldiv@b+1,f
  5683  012D  0DD0               	rlf	___fldiv@b+2,f
  5684  012E  0DD1               	rlf	___fldiv@b+3,f
  5685  012F  0BD2               	decfsz	??___fldiv,f
  5686  0130  292A               	goto	u2915
  5687  0131                     l2283:	
  5688  0131  1FE1               	btfss	___fldiv@grs+3,7
  5689  0132  2934               	goto	u2921
  5690  0133  2935               	goto	u2920
  5691  0134                     u2921:	
  5692  0134  2936               	goto	l2287
  5693  0135                     u2920:	
  5694  0135                     l2285:	
  5695  0135  144E               	bsf	___fldiv@b,0
  5696  0136                     l2287:	
  5697  0136  3001               	movlw	1
  5698  0137  00D2               	movwf	??___fldiv
  5699  0138                     u2935:	
  5700  0138  1003               	clrc
  5701  0139  0DDE               	rlf	___fldiv@grs,f
  5702  013A  0DDF               	rlf	___fldiv@grs+1,f
  5703  013B  0DE0               	rlf	___fldiv@grs+2,f
  5704  013C  0DE1               	rlf	___fldiv@grs+3,f
  5705  013D  0BD2               	decfsz	??___fldiv,f
  5706  013E  2938               	goto	u2935
  5707  013F                     l2289:	
  5708  013F  30FF               	movlw	255
  5709  0140  07DC               	addwf	___fldiv@new_exp,f
  5710  0141  1803               	skipnc
  5711  0142  0ADD               	incf	___fldiv@new_exp+1,f
  5712  0143  30FF               	movlw	255
  5713  0144  07DD               	addwf	___fldiv@new_exp+1,f
  5714  0145                     l2291:	
  5715  0145  1FD0               	btfss	___fldiv@b+2,7
  5716  0146  2948               	goto	u2941
  5717  0147  2949               	goto	u2940
  5718  0148                     u2941:	
  5719  0148  2928               	goto	l2281
  5720  0149                     u2940:	
  5721  0149                     l2293:	
  5722  0149  01E3               	clrf	___fldiv@aexp
  5723  014A                     l2295:	
  5724  014A  1FE1               	btfss	___fldiv@grs+3,7
  5725  014B  294D               	goto	u2951
  5726  014C  294E               	goto	u2950
  5727  014D                     u2951:	
  5728  014D  296A               	goto	l2303
  5729  014E                     u2950:	
  5730  014E                     l2297:	
  5731  014E  30FF               	movlw	255
  5732  014F  055E               	andwf	___fldiv@grs,w
  5733  0150  00D2               	movwf	??___fldiv
  5734  0151  30FF               	movlw	255
  5735  0152  055F               	andwf	___fldiv@grs+1,w
  5736  0153  00D3               	movwf	??___fldiv+1
  5737  0154  30FF               	movlw	255
  5738  0155  0560               	andwf	___fldiv@grs+2,w
  5739  0156  00D4               	movwf	??___fldiv+2
  5740  0157  307F               	movlw	127
  5741  0158  0561               	andwf	___fldiv@grs+3,w
  5742  0159  00D5               	movwf	??___fldiv+3
  5743  015A  0855               	movf	??___fldiv+3,w
  5744  015B  0454               	iorwf	??___fldiv+2,w
  5745  015C  0453               	iorwf	??___fldiv+1,w
  5746  015D  0452               	iorwf	??___fldiv,w
  5747  015E  1903               	skipnz
  5748  015F  2961               	goto	u2961
  5749  0160  2962               	goto	u2960
  5750  0161                     u2961:	
  5751  0161  2965               	goto	l634
  5752  0162                     u2960:	
  5753  0162                     l2299:	
  5754  0162  01E3               	clrf	___fldiv@aexp
  5755  0163  0AE3               	incf	___fldiv@aexp,f
  5756  0164  296A               	goto	l2303
  5757  0165                     l634:	
  5758  0165  1C4E               	btfss	___fldiv@b,0
  5759  0166  2968               	goto	u2971
  5760  0167  2969               	goto	u2970
  5761  0168                     u2971:	
  5762  0168  296A               	goto	l2303
  5763  0169                     u2970:	
  5764  0169  2962               	goto	l2299
  5765  016A                     l2303:	
  5766  016A  0863               	movf	___fldiv@aexp,w
  5767  016B  1903               	btfsc	3,2
  5768  016C  296E               	goto	u2981
  5769  016D  296F               	goto	u2980
  5770  016E                     u2981:	
  5771  016E  29A0               	goto	l2313
  5772  016F                     u2980:	
  5773  016F                     l2305:	
  5774  016F  3001               	movlw	1
  5775  0170  07CE               	addwf	___fldiv@b,f
  5776  0171  3000               	movlw	0
  5777  0172  1803               	skipnc
  5778  0173  3001               	movlw	1
  5779  0174  07CF               	addwf	___fldiv@b+1,f
  5780  0175  3000               	movlw	0
  5781  0176  1803               	skipnc
  5782  0177  3001               	movlw	1
  5783  0178  07D0               	addwf	___fldiv@b+2,f
  5784  0179  3000               	movlw	0
  5785  017A  1803               	skipnc
  5786  017B  3001               	movlw	1
  5787  017C  07D1               	addwf	___fldiv@b+3,f
  5788  017D                     l2307:	
  5789  017D  1C51               	btfss	___fldiv@b+3,0
  5790  017E  2980               	goto	u2991
  5791  017F  2981               	goto	u2990
  5792  0180                     u2991:	
  5793  0180  29A0               	goto	l2313
  5794  0181                     u2990:	
  5795  0181                     l2309:	
  5796  0181  084E               	movf	___fldiv@b,w
  5797  0182  00D2               	movwf	??___fldiv
  5798  0183  084F               	movf	___fldiv@b+1,w
  5799  0184  00D3               	movwf	??___fldiv+1
  5800  0185  0850               	movf	___fldiv@b+2,w
  5801  0186  00D4               	movwf	??___fldiv+2
  5802  0187  0851               	movf	___fldiv@b+3,w
  5803  0188  00D5               	movwf	??___fldiv+3
  5804  0189  3001               	movlw	1
  5805  018A  00D6               	movwf	??___fldiv+4
  5806  018B                     u3005:	
  5807  018B  0D55               	rlf	??___fldiv+3,w
  5808  018C  0CD5               	rrf	??___fldiv+3,f
  5809  018D  0CD4               	rrf	??___fldiv+2,f
  5810  018E  0CD3               	rrf	??___fldiv+1,f
  5811  018F  0CD2               	rrf	??___fldiv,f
  5812  0190                     u3000:	
  5813  0190  0BD6               	decfsz	??___fldiv+4,f
  5814  0191  298B               	goto	u3005
  5815  0192  0855               	movf	??___fldiv+3,w
  5816  0193  00D1               	movwf	___fldiv@b+3
  5817  0194  0854               	movf	??___fldiv+2,w
  5818  0195  00D0               	movwf	___fldiv@b+2
  5819  0196  0853               	movf	??___fldiv+1,w
  5820  0197  00CF               	movwf	___fldiv@b+1
  5821  0198  0852               	movf	??___fldiv,w
  5822  0199  00CE               	movwf	___fldiv@b
  5823  019A                     l2311:	
  5824  019A  3001               	movlw	1
  5825  019B  07DC               	addwf	___fldiv@new_exp,f
  5826  019C  1803               	skipnc
  5827  019D  0ADD               	incf	___fldiv@new_exp+1,f
  5828  019E  3000               	movlw	0
  5829  019F  07DD               	addwf	___fldiv@new_exp+1,f
  5830  01A0                     l2313:	
  5831  01A0  085D               	movf	___fldiv@new_exp+1,w
  5832  01A1  3A80               	xorlw	128
  5833  01A2  00FF               	movwf	btemp+1
  5834  01A3  3080               	movlw	128
  5835  01A4  027F               	subwf	btemp+1,w
  5836  01A5  1D03               	skipz
  5837  01A6  29A9               	goto	u3015
  5838  01A7  30FF               	movlw	255
  5839  01A8  025C               	subwf	___fldiv@new_exp,w
  5840  01A9                     u3015:	
  5841  01A9  1C03               	skipc
  5842  01AA  29AC               	goto	u3011
  5843  01AB  29AD               	goto	u3010
  5844  01AC                     u3011:	
  5845  01AC  29BB               	goto	l2317
  5846  01AD                     u3010:	
  5847  01AD                     l2315:	
  5848  01AD  30FF               	movlw	255
  5849  01AE  1283               	bcf	3,5	;RP0=0, select bank0
  5850  01AF  1303               	bcf	3,6	;RP1=0, select bank0
  5851  01B0  00DC               	movwf	___fldiv@new_exp
  5852  01B1  3000               	movlw	0
  5853  01B2  00DD               	movwf	___fldiv@new_exp+1
  5854  01B3  3000               	movlw	0
  5855  01B4  00D1               	movwf	___fldiv@b+3
  5856  01B5  3000               	movlw	0
  5857  01B6  00D0               	movwf	___fldiv@b+2
  5858  01B7  3000               	movlw	0
  5859  01B8  00CF               	movwf	___fldiv@b+1
  5860  01B9  3000               	movlw	0
  5861  01BA  00CE               	movwf	___fldiv@b
  5862  01BB                     l2317:	
  5863  01BB  1283               	bcf	3,5	;RP0=0, select bank0
  5864  01BC  1303               	bcf	3,6	;RP1=0, select bank0
  5865  01BD  085D               	movf	___fldiv@new_exp+1,w
  5866  01BE  3A80               	xorlw	128
  5867  01BF  00FF               	movwf	btemp+1
  5868  01C0  3080               	movlw	128
  5869  01C1  027F               	subwf	btemp+1,w
  5870  01C2  1D03               	skipz
  5871  01C3  29C6               	goto	u3025
  5872  01C4  3001               	movlw	1
  5873  01C5  025C               	subwf	___fldiv@new_exp,w
  5874  01C6                     u3025:	
  5875  01C6  1803               	skipnc
  5876  01C7  29C9               	goto	u3021
  5877  01C8  29CA               	goto	u3020
  5878  01C9                     u3021:	
  5879  01C9  29D7               	goto	l640
  5880  01CA                     u3020:	
  5881  01CA                     l2319:	
  5882  01CA  1283               	bcf	3,5	;RP0=0, select bank0
  5883  01CB  1303               	bcf	3,6	;RP1=0, select bank0
  5884  01CC  01DC               	clrf	___fldiv@new_exp
  5885  01CD  01DD               	clrf	___fldiv@new_exp+1
  5886  01CE                     l2321:	
  5887  01CE  3000               	movlw	0
  5888  01CF  00D1               	movwf	___fldiv@b+3
  5889  01D0  3000               	movlw	0
  5890  01D1  00D0               	movwf	___fldiv@b+2
  5891  01D2  3000               	movlw	0
  5892  01D3  00CF               	movwf	___fldiv@b+1
  5893  01D4  3000               	movlw	0
  5894  01D5  00CE               	movwf	___fldiv@b
  5895  01D6                     l2323:	
  5896  01D6  01DB               	clrf	___fldiv@sign
  5897  01D7                     l640:	
  5898  01D7  1283               	bcf	3,5	;RP0=0, select bank0
  5899  01D8  1303               	bcf	3,6	;RP1=0, select bank0
  5900  01D9  085C               	movf	___fldiv@new_exp,w
  5901  01DA  00D2               	movwf	??___fldiv
  5902  01DB  0852               	movf	??___fldiv,w
  5903  01DC  00E2               	movwf	___fldiv@bexp
  5904  01DD                     l2325:	
  5905  01DD  1C62               	btfss	___fldiv@bexp,0
  5906  01DE  29E0               	goto	u3031
  5907  01DF  29E1               	goto	u3030
  5908  01E0                     u3031:	
  5909  01E0  29E3               	goto	l2329
  5910  01E1                     u3030:	
  5911  01E1                     l2327:	
  5912  01E1  17D0               	bsf	___fldiv@b+2,7
  5913  01E2  29E7               	goto	l642
  5914  01E3                     l2329:	
  5915  01E3  307F               	movlw	127
  5916  01E4  00D2               	movwf	??___fldiv
  5917  01E5  0852               	movf	??___fldiv,w
  5918  01E6  05D0               	andwf	___fldiv@b+2,f
  5919  01E7                     l642:	
  5920  01E7  0862               	movf	___fldiv@bexp,w
  5921  01E8  00D2               	movwf	??___fldiv
  5922  01E9  1003               	clrc
  5923  01EA  0C52               	rrf	??___fldiv,w
  5924  01EB  00D3               	movwf	??___fldiv+1
  5925  01EC  0853               	movf	??___fldiv+1,w
  5926  01ED  00D1               	movwf	___fldiv@b+3
  5927  01EE  085B               	movf	___fldiv@sign,w
  5928  01EF  00D2               	movwf	??___fldiv
  5929  01F0  0852               	movf	??___fldiv,w
  5930  01F1  04D1               	iorwf	___fldiv@b+3,f
  5931  01F2  288B               	goto	l2237
  5932  01F3                     l620:	
  5933  01F3  0008               	return
  5934  01F4                     __end_of___fldiv:	
  5935                           
  5936                           	psect	text18
  5937  093A                     __ptext18:	
  5938 ;; *************** function _I2C_Master_Write *****************
  5939 ;; Defined at:
  5940 ;;		line 54 in file "I2C_Init.c"
  5941 ;; Parameters:    Size  Location     Type
  5942 ;;  d               2    0[COMMON] unsigned int 
  5943 ;; Auto vars:     Size  Location     Type
  5944 ;;		None
  5945 ;; Return value:  Size  Location     Type
  5946 ;;                  1    wreg      void 
  5947 ;; Registers used:
  5948 ;;		wreg, status,2, status,0, pclath, cstack
  5949 ;; Tracked objects:
  5950 ;;		On entry : 0/0
  5951 ;;		On exit  : 0/0
  5952 ;;		Unchanged: 0/0
  5953 ;; Data sizes:     COMMON   BANK0   BANK1   BANK3   BANK2
  5954 ;;      Params:         2       0       0       0       0
  5955 ;;      Locals:         0       0       0       0       0
  5956 ;;      Temps:          0       0       0       0       0
  5957 ;;      Totals:         2       0       0       0       0
  5958 ;;Total ram usage:        2 bytes
  5959 ;; Hardware stack levels used:    1
  5960 ;; Hardware stack levels required when called:    1
  5961 ;; This function calls:
  5962 ;;		_I2C_Master_Wait
  5963 ;; This function is called by:
  5964 ;;		_main
  5965 ;; This function uses a non-reentrant model
  5966 ;;
  5967                           
  5968                           
  5969                           ;psect for function _I2C_Master_Write
  5970  093A                     _I2C_Master_Write:	
  5971  093A                     l2125:	
  5972                           ;incstack = 0
  5973                           ; Regs used in _I2C_Master_Write: [wreg+status,2+status,0+pclath+cstack]
  5974                           
  5975                           
  5976                           ;I2C_Init.c: 54: void I2C_Master_Write(unsigned d);I2C_Init.c: 55: {;I2C_Init.c: 56:    
      +                           I2C_Master_Wait();
  5977  093A  120A  158A  2144  120A  158A  	fcall	_I2C_Master_Wait
  5978  093F                     l2127:	
  5979                           
  5980                           ;I2C_Init.c: 57:     SSPBUF = d;
  5981  093F  0870               	movf	I2C_Master_Write@d,w
  5982  0940  1283               	bcf	3,5	;RP0=0, select bank0
  5983  0941  1303               	bcf	3,6	;RP1=0, select bank0
  5984  0942  0093               	movwf	19	;volatile
  5985  0943                     l111:	
  5986  0943  0008               	return
  5987  0944                     __end_of_I2C_Master_Write:	
  5988                           
  5989                           	psect	text19
  5990  0931                     __ptext19:	
  5991 ;; *************** function _I2C_Master_Stop *****************
  5992 ;; Defined at:
  5993 ;;		line 44 in file "I2C_Init.c"
  5994 ;; Parameters:    Size  Location     Type
  5995 ;;		None
  5996 ;; Auto vars:     Size  Location     Type
  5997 ;;		None
  5998 ;; Return value:  Size  Location     Type
  5999 ;;                  1    wreg      void 
  6000 ;; Registers used:
  6001 ;;		wreg, status,2, status,0, pclath, cstack
  6002 ;; Tracked objects:
  6003 ;;		On entry : 0/0
  6004 ;;		On exit  : 0/0
  6005 ;;		Unchanged: 0/0
  6006 ;; Data sizes:     COMMON   BANK0   BANK1   BANK3   BANK2
  6007 ;;      Params:         0       0       0       0       0
  6008 ;;      Locals:         0       0       0       0       0
  6009 ;;      Temps:          0       0       0       0       0
  6010 ;;      Totals:         0       0       0       0       0
  6011 ;;Total ram usage:        0 bytes
  6012 ;; Hardware stack levels used:    1
  6013 ;; Hardware stack levels required when called:    1
  6014 ;; This function calls:
  6015 ;;		_I2C_Master_Wait
  6016 ;; This function is called by:
  6017 ;;		_main
  6018 ;; This function uses a non-reentrant model
  6019 ;;
  6020                           
  6021                           
  6022                           ;psect for function _I2C_Master_Stop
  6023  0931                     _I2C_Master_Stop:	
  6024  0931                     l2145:	
  6025                           ;incstack = 0
  6026                           ; Regs used in _I2C_Master_Stop: [wreg+status,2+status,0+pclath+cstack]
  6027                           
  6028                           
  6029                           ;I2C_Init.c: 46:     I2C_Master_Wait();
  6030  0931  120A  158A  2144  120A  158A  	fcall	_I2C_Master_Wait
  6031  0936                     l2147:	
  6032                           
  6033                           ;I2C_Init.c: 47:     SSPCON2bits.PEN = 1;
  6034  0936  1683               	bsf	3,5	;RP0=1, select bank1
  6035  0937  1303               	bcf	3,6	;RP1=0, select bank1
  6036  0938  1511               	bsf	17,2	;volatile
  6037  0939                     l108:	
  6038  0939  0008               	return
  6039  093A                     __end_of_I2C_Master_Stop:	
  6040                           
  6041                           	psect	text20
  6042  0928                     __ptext20:	
  6043 ;; *************** function _I2C_Master_Start *****************
  6044 ;; Defined at:
  6045 ;;		line 28 in file "I2C_Init.c"
  6046 ;; Parameters:    Size  Location     Type
  6047 ;;		None
  6048 ;; Auto vars:     Size  Location     Type
  6049 ;;		None
  6050 ;; Return value:  Size  Location     Type
  6051 ;;                  1    wreg      void 
  6052 ;; Registers used:
  6053 ;;		wreg, status,2, status,0, pclath, cstack
  6054 ;; Tracked objects:
  6055 ;;		On entry : 0/0
  6056 ;;		On exit  : 0/0
  6057 ;;		Unchanged: 0/0
  6058 ;; Data sizes:     COMMON   BANK0   BANK1   BANK3   BANK2
  6059 ;;      Params:         0       0       0       0       0
  6060 ;;      Locals:         0       0       0       0       0
  6061 ;;      Temps:          0       0       0       0       0
  6062 ;;      Totals:         0       0       0       0       0
  6063 ;;Total ram usage:        0 bytes
  6064 ;; Hardware stack levels used:    1
  6065 ;; Hardware stack levels required when called:    1
  6066 ;; This function calls:
  6067 ;;		_I2C_Master_Wait
  6068 ;; This function is called by:
  6069 ;;		_main
  6070 ;; This function uses a non-reentrant model
  6071 ;;
  6072                           
  6073                           
  6074                           ;psect for function _I2C_Master_Start
  6075  0928                     _I2C_Master_Start:	
  6076  0928                     l2121:	
  6077                           ;incstack = 0
  6078                           ; Regs used in _I2C_Master_Start: [wreg+status,2+status,0+pclath+cstack]
  6079                           
  6080                           
  6081                           ;I2C_Init.c: 30:     I2C_Master_Wait();
  6082  0928  120A  158A  2144  120A  158A  	fcall	_I2C_Master_Wait
  6083  092D                     l2123:	
  6084                           
  6085                           ;I2C_Init.c: 31:     SSPCON2bits.SEN = 1;
  6086  092D  1683               	bsf	3,5	;RP0=1, select bank1
  6087  092E  1303               	bcf	3,6	;RP1=0, select bank1
  6088  092F  1411               	bsf	17,0	;volatile
  6089  0930                     l102:	
  6090  0930  0008               	return
  6091  0931                     __end_of_I2C_Master_Start:	
  6092                           
  6093                           	psect	text21
  6094  09E9                     __ptext21:	
  6095 ;; *************** function _I2C_Master_Read *****************
  6096 ;; Defined at:
  6097 ;;		line 63 in file "I2C_Init.c"
  6098 ;; Parameters:    Size  Location     Type
  6099 ;;  a               2    0[COMMON] unsigned short 
  6100 ;; Auto vars:     Size  Location     Type
  6101 ;;  temp            2    4[COMMON] unsigned short 
  6102 ;; Return value:  Size  Location     Type
  6103 ;;                  2    0[COMMON] unsigned short 
  6104 ;; Registers used:
  6105 ;;		wreg, status,2, status,0, pclath, cstack
  6106 ;; Tracked objects:
  6107 ;;		On entry : 0/0
  6108 ;;		On exit  : 0/0
  6109 ;;		Unchanged: 0/0
  6110 ;; Data sizes:     COMMON   BANK0   BANK1   BANK3   BANK2
  6111 ;;      Params:         2       0       0       0       0
  6112 ;;      Locals:         2       0       0       0       0
  6113 ;;      Temps:          2       0       0       0       0
  6114 ;;      Totals:         6       0       0       0       0
  6115 ;;Total ram usage:        6 bytes
  6116 ;; Hardware stack levels used:    1
  6117 ;; Hardware stack levels required when called:    1
  6118 ;; This function calls:
  6119 ;;		_I2C_Master_Wait
  6120 ;; This function is called by:
  6121 ;;		_main
  6122 ;; This function uses a non-reentrant model
  6123 ;;
  6124                           
  6125                           
  6126                           ;psect for function _I2C_Master_Read
  6127  09E9                     _I2C_Master_Read:	
  6128  09E9                     l2129:	
  6129                           ;incstack = 0
  6130                           ; Regs used in _I2C_Master_Read: [wreg+status,2+status,0+pclath+cstack]
  6131                           
  6132                           
  6133                           ;I2C_Init.c: 63: unsigned short I2C_Master_Read(unsigned short a);I2C_Init.c: 64: {;I2C_
      +                          Init.c: 65:     unsigned short temp;;I2C_Init.c: 66:     I2C_Master_Wait();
  6134  09E9  120A  158A  2144  120A  158A  	fcall	_I2C_Master_Wait
  6135  09EE                     l2131:	
  6136                           
  6137                           ;I2C_Init.c: 67:     SSPCON2bits.RCEN = 1;
  6138  09EE  1683               	bsf	3,5	;RP0=1, select bank1
  6139  09EF  1303               	bcf	3,6	;RP1=0, select bank1
  6140  09F0  1591               	bsf	17,3	;volatile
  6141                           
  6142                           ;I2C_Init.c: 68:     I2C_Master_Wait();
  6143  09F1  120A  158A  2144  120A  158A  	fcall	_I2C_Master_Wait
  6144  09F6                     l2133:	
  6145                           
  6146                           ;I2C_Init.c: 69:     temp = SSPBUF;
  6147  09F6  1283               	bcf	3,5	;RP0=0, select bank0
  6148  09F7  1303               	bcf	3,6	;RP1=0, select bank0
  6149  09F8  0813               	movf	19,w	;volatile
  6150  09F9  00F2               	movwf	??_I2C_Master_Read
  6151  09FA  01F3               	clrf	??_I2C_Master_Read+1
  6152  09FB  0872               	movf	??_I2C_Master_Read,w
  6153  09FC  00F4               	movwf	I2C_Master_Read@temp
  6154  09FD  0873               	movf	??_I2C_Master_Read+1,w
  6155  09FE  00F5               	movwf	I2C_Master_Read@temp+1
  6156  09FF                     l2135:	
  6157                           
  6158                           ;I2C_Init.c: 70:     I2C_Master_Wait();
  6159  09FF  120A  158A  2144  120A  158A  	fcall	_I2C_Master_Wait
  6160  0A04                     l2137:	
  6161                           
  6162                           ;I2C_Init.c: 71:     if(a == 1){
  6163  0A04  0370               	decf	I2C_Master_Read@a,w
  6164  0A05  0471               	iorwf	I2C_Master_Read@a+1,w
  6165  0A06  1D03               	btfss	3,2
  6166  0A07  2A09               	goto	u2641
  6167  0A08  2A0A               	goto	u2640
  6168  0A09                     u2641:	
  6169  0A09  2A0E               	goto	l114
  6170  0A0A                     u2640:	
  6171  0A0A                     l2139:	
  6172                           
  6173                           ;I2C_Init.c: 72:         SSPCON2bits.ACKDT = 0;
  6174  0A0A  1683               	bsf	3,5	;RP0=1, select bank1
  6175  0A0B  1303               	bcf	3,6	;RP1=0, select bank1
  6176  0A0C  1291               	bcf	17,5	;volatile
  6177                           
  6178                           ;I2C_Init.c: 73:     }else{
  6179  0A0D  2A11               	goto	l115
  6180  0A0E                     l114:	
  6181                           
  6182                           ;I2C_Init.c: 74:         SSPCON2bits.ACKDT = 1;
  6183  0A0E  1683               	bsf	3,5	;RP0=1, select bank1
  6184  0A0F  1303               	bcf	3,6	;RP1=0, select bank1
  6185  0A10  1691               	bsf	17,5	;volatile
  6186  0A11                     l115:	
  6187                           ;I2C_Init.c: 75:     }
  6188                           
  6189                           
  6190                           ;I2C_Init.c: 76:     SSPCON2bits.ACKEN = 1;
  6191  0A11  1611               	bsf	17,4	;volatile
  6192  0A12                     l2141:	
  6193                           
  6194                           ;I2C_Init.c: 77:     return temp;
  6195  0A12  0875               	movf	I2C_Master_Read@temp+1,w
  6196  0A13  00F1               	movwf	?_I2C_Master_Read+1
  6197  0A14  0874               	movf	I2C_Master_Read@temp,w
  6198  0A15  00F0               	movwf	?_I2C_Master_Read
  6199  0A16                     l116:	
  6200  0A16  0008               	return
  6201  0A17                     __end_of_I2C_Master_Read:	
  6202                           
  6203                           	psect	text22
  6204  0944                     __ptext22:	
  6205 ;; *************** function _I2C_Master_Wait *****************
  6206 ;; Defined at:
  6207 ;;		line 21 in file "I2C_Init.c"
  6208 ;; Parameters:    Size  Location     Type
  6209 ;;		None
  6210 ;; Auto vars:     Size  Location     Type
  6211 ;;		None
  6212 ;; Return value:  Size  Location     Type
  6213 ;;                  1    wreg      void 
  6214 ;; Registers used:
  6215 ;;		wreg, status,2
  6216 ;; Tracked objects:
  6217 ;;		On entry : 0/0
  6218 ;;		On exit  : 0/0
  6219 ;;		Unchanged: 0/0
  6220 ;; Data sizes:     COMMON   BANK0   BANK1   BANK3   BANK2
  6221 ;;      Params:         0       0       0       0       0
  6222 ;;      Locals:         0       0       0       0       0
  6223 ;;      Temps:          0       0       0       0       0
  6224 ;;      Totals:         0       0       0       0       0
  6225 ;;Total ram usage:        0 bytes
  6226 ;; Hardware stack levels used:    1
  6227 ;; This function calls:
  6228 ;;		Nothing
  6229 ;; This function is called by:
  6230 ;;		_I2C_Master_Start
  6231 ;;		_I2C_Master_Stop
  6232 ;;		_I2C_Master_Write
  6233 ;;		_I2C_Master_Read
  6234 ;;		_I2C_Master_RepeatedStart
  6235 ;; This function uses a non-reentrant model
  6236 ;;
  6237                           
  6238                           
  6239                           ;psect for function _I2C_Master_Wait
  6240  0944                     _I2C_Master_Wait:	
  6241  0944                     l1773:	
  6242                           ;incstack = 0
  6243                           ; Regs used in _I2C_Master_Wait: [wreg+status,2]
  6244                           
  6245  0944                     l96:	
  6246                           ;I2C_Init.c: 23:     while ((SSPSTAT & 0x04) || (SSPCON2 & 0x1F));
  6247                           
  6248  0944  1683               	bsf	3,5	;RP0=1, select bank1
  6249  0945  1303               	bcf	3,6	;RP1=0, select bank1
  6250  0946  1914               	btfsc	20,2	;volatile
  6251  0947  2949               	goto	u1961
  6252  0948  294A               	goto	u1960
  6253  0949                     u1961:	
  6254  0949  2944               	goto	l96
  6255  094A                     u1960:	
  6256  094A                     l1775:	
  6257  094A  0811               	movf	17,w	;volatile
  6258  094B  391F               	andlw	31
  6259  094C  1D03               	btfss	3,2
  6260  094D  294F               	goto	u1971
  6261  094E  2950               	goto	u1970
  6262  094F                     u1971:	
  6263  094F  2944               	goto	l96
  6264  0950                     u1970:	
  6265  0950                     l99:	
  6266  0950  0008               	return
  6267  0951                     __end_of_I2C_Master_Wait:	
  6268                           
  6269                           	psect	text23
  6270  0A17                     __ptext23:	
  6271 ;; *************** function _I2C_Master_Init *****************
  6272 ;; Defined at:
  6273 ;;		line 5 in file "I2C_Init.c"
  6274 ;; Parameters:    Size  Location     Type
  6275 ;;  c               4    0[BANK0 ] const unsigned long 
  6276 ;; Auto vars:     Size  Location     Type
  6277 ;;		None
  6278 ;; Return value:  Size  Location     Type
  6279 ;;                  1    wreg      void 
  6280 ;; Registers used:
  6281 ;;		wreg, status,2, status,0, pclath, cstack
  6282 ;; Tracked objects:
  6283 ;;		On entry : 0/0
  6284 ;;		On exit  : 0/0
  6285 ;;		Unchanged: 0/0
  6286 ;; Data sizes:     COMMON   BANK0   BANK1   BANK3   BANK2
  6287 ;;      Params:         0       4       0       0       0
  6288 ;;      Locals:         0       0       0       0       0
  6289 ;;      Temps:          0       4       0       0       0
  6290 ;;      Totals:         0       8       0       0       0
  6291 ;;Total ram usage:        8 bytes
  6292 ;; Hardware stack levels used:    1
  6293 ;; Hardware stack levels required when called:    1
  6294 ;; This function calls:
  6295 ;;		___lldiv
  6296 ;; This function is called by:
  6297 ;;		_main
  6298 ;; This function uses a non-reentrant model
  6299 ;;
  6300                           
  6301                           
  6302                           ;psect for function _I2C_Master_Init
  6303  0A17                     _I2C_Master_Init:	
  6304  0A17                     l2099:	
  6305                           ;incstack = 0
  6306                           ; Regs used in _I2C_Master_Init: [wreg+status,2+status,0+pclath+cstack]
  6307                           
  6308                           
  6309                           ;I2C_Init.c: 5: void I2C_Master_Init(const unsigned long c);I2C_Init.c: 6: {;I2C_Init.c:
      +                           7:     SSPCON = 0b00101000;
  6310  0A17  3028               	movlw	40
  6311  0A18  1283               	bcf	3,5	;RP0=0, select bank0
  6312  0A19  1303               	bcf	3,6	;RP1=0, select bank0
  6313  0A1A  0094               	movwf	20	;volatile
  6314  0A1B                     l2101:	
  6315                           
  6316                           ;I2C_Init.c: 8:     SSPCON2 = 0;
  6317  0A1B  1683               	bsf	3,5	;RP0=1, select bank1
  6318  0A1C  1303               	bcf	3,6	;RP1=0, select bank1
  6319  0A1D  0191               	clrf	17	;volatile
  6320  0A1E                     l2103:	
  6321                           
  6322                           ;I2C_Init.c: 9:     SSPADD = (4000000/(4*c))-1;
  6323  0A1E  1283               	bcf	3,5	;RP0=0, select bank0
  6324  0A1F  1303               	bcf	3,6	;RP1=0, select bank0
  6325  0A20  0820               	movf	I2C_Master_Init@c,w
  6326  0A21  00A4               	movwf	??_I2C_Master_Init
  6327  0A22  0821               	movf	I2C_Master_Init@c+1,w
  6328  0A23  00A5               	movwf	??_I2C_Master_Init+1
  6329  0A24  0822               	movf	I2C_Master_Init@c+2,w
  6330  0A25  00A6               	movwf	??_I2C_Master_Init+2
  6331  0A26  0823               	movf	I2C_Master_Init@c+3,w
  6332  0A27  00A7               	movwf	??_I2C_Master_Init+3
  6333  0A28  3002               	movlw	2
  6334  0A29                     u2615:	
  6335  0A29  1003               	clrc
  6336  0A2A  0DA4               	rlf	??_I2C_Master_Init,f
  6337  0A2B  0DA5               	rlf	??_I2C_Master_Init+1,f
  6338  0A2C  0DA6               	rlf	??_I2C_Master_Init+2,f
  6339  0A2D  0DA7               	rlf	??_I2C_Master_Init+3,f
  6340  0A2E                     u2610:	
  6341  0A2E  3EFF               	addlw	-1
  6342  0A2F  1D03               	skipz
  6343  0A30  2A29               	goto	u2615
  6344  0A31  0827               	movf	??_I2C_Master_Init+3,w
  6345  0A32  00F3               	movwf	___lldiv@divisor+3
  6346  0A33  0826               	movf	??_I2C_Master_Init+2,w
  6347  0A34  00F2               	movwf	___lldiv@divisor+2
  6348  0A35  0825               	movf	??_I2C_Master_Init+1,w
  6349  0A36  00F1               	movwf	___lldiv@divisor+1
  6350  0A37  0824               	movf	??_I2C_Master_Init,w
  6351  0A38  00F0               	movwf	___lldiv@divisor
  6352  0A39  3000               	movlw	0
  6353  0A3A  00F7               	movwf	___lldiv@dividend+3
  6354  0A3B  303D               	movlw	61
  6355  0A3C  00F6               	movwf	___lldiv@dividend+2
  6356  0A3D  3009               	movlw	9
  6357  0A3E  00F5               	movwf	___lldiv@dividend+1
  6358  0A3F  3000               	movlw	0
  6359  0A40  00F4               	movwf	___lldiv@dividend
  6360  0A41  120A  158A  235E  120A  158A  	fcall	___lldiv
  6361  0A46  0870               	movf	?___lldiv,w
  6362  0A47  3EFF               	addlw	255
  6363  0A48  1683               	bsf	3,5	;RP0=1, select bank1
  6364  0A49  1303               	bcf	3,6	;RP1=0, select bank1
  6365  0A4A  0093               	movwf	19	;volatile
  6366  0A4B                     l2105:	
  6367                           
  6368                           ;I2C_Init.c: 10:     SSPSTAT = 0;
  6369  0A4B  0194               	clrf	20	;volatile
  6370  0A4C                     l2107:	
  6371                           
  6372                           ;I2C_Init.c: 11:     TRISCbits.TRISC3 = 1;
  6373  0A4C  1587               	bsf	7,3	;volatile
  6374  0A4D                     l2109:	
  6375                           
  6376                           ;I2C_Init.c: 12:     TRISCbits.TRISC4 = 1;
  6377  0A4D  1607               	bsf	7,4	;volatile
  6378  0A4E                     l93:	
  6379  0A4E  0008               	return
  6380  0A4F                     __end_of_I2C_Master_Init:	
  6381                           
  6382                           	psect	text24
  6383  0B5E                     __ptext24:	
  6384 ;; *************** function ___lldiv *****************
  6385 ;; Defined at:
  6386 ;;		line 5 in file "C:\Program Files (x86)\Microchip\xc8\v2.10\pic\sources\c90\common\__lldiv.c"
  6387 ;; Parameters:    Size  Location     Type
  6388 ;;  divisor         4    0[COMMON] unsigned long 
  6389 ;;  dividend        4    4[COMMON] unsigned long 
  6390 ;; Auto vars:     Size  Location     Type
  6391 ;;  quotient        4    9[COMMON] unsigned long 
  6392 ;;  counter         1   13[COMMON] unsigned char 
  6393 ;; Return value:  Size  Location     Type
  6394 ;;                  4    0[COMMON] unsigned long 
  6395 ;; Registers used:
  6396 ;;		wreg, status,2, status,0
  6397 ;; Tracked objects:
  6398 ;;		On entry : 0/0
  6399 ;;		On exit  : 0/0
  6400 ;;		Unchanged: 0/0
  6401 ;; Data sizes:     COMMON   BANK0   BANK1   BANK3   BANK2
  6402 ;;      Params:         8       0       0       0       0
  6403 ;;      Locals:         5       0       0       0       0
  6404 ;;      Temps:          1       0       0       0       0
  6405 ;;      Totals:        14       0       0       0       0
  6406 ;;Total ram usage:       14 bytes
  6407 ;; Hardware stack levels used:    1
  6408 ;; This function calls:
  6409 ;;		Nothing
  6410 ;; This function is called by:
  6411 ;;		_I2C_Master_Init
  6412 ;; This function uses a non-reentrant model
  6413 ;;
  6414                           
  6415                           
  6416                           ;psect for function ___lldiv
  6417  0B5E                     ___lldiv:	
  6418  0B5E                     l1847:	
  6419                           ;incstack = 0
  6420                           ; Regs used in ___lldiv: [wreg+status,2+status,0]
  6421                           
  6422  0B5E  3000               	movlw	0
  6423  0B5F  00FC               	movwf	___lldiv@quotient+3
  6424  0B60  3000               	movlw	0
  6425  0B61  00FB               	movwf	___lldiv@quotient+2
  6426  0B62  3000               	movlw	0
  6427  0B63  00FA               	movwf	___lldiv@quotient+1
  6428  0B64  3000               	movlw	0
  6429  0B65  00F9               	movwf	___lldiv@quotient
  6430  0B66  0873               	movf	___lldiv@divisor+3,w
  6431  0B67  0472               	iorwf	___lldiv@divisor+2,w
  6432  0B68  0471               	iorwf	___lldiv@divisor+1,w
  6433  0B69  0470               	iorwf	___lldiv@divisor,w
  6434  0B6A  1903               	skipnz
  6435  0B6B  2B6D               	goto	u2051
  6436  0B6C  2B6E               	goto	u2050
  6437  0B6D                     u2051:	
  6438  0B6D  2BBB               	goto	l1867
  6439  0B6E                     u2050:	
  6440  0B6E                     l1849:	
  6441  0B6E  01FD               	clrf	___lldiv@counter
  6442  0B6F  0AFD               	incf	___lldiv@counter,f
  6443  0B70  2B7E               	goto	l1853
  6444  0B71                     l1851:	
  6445  0B71  3001               	movlw	1
  6446  0B72  00F8               	movwf	??___lldiv
  6447  0B73                     u2065:	
  6448  0B73  1003               	clrc
  6449  0B74  0DF0               	rlf	___lldiv@divisor,f
  6450  0B75  0DF1               	rlf	___lldiv@divisor+1,f
  6451  0B76  0DF2               	rlf	___lldiv@divisor+2,f
  6452  0B77  0DF3               	rlf	___lldiv@divisor+3,f
  6453  0B78  0BF8               	decfsz	??___lldiv,f
  6454  0B79  2B73               	goto	u2065
  6455  0B7A  3001               	movlw	1
  6456  0B7B  00F8               	movwf	??___lldiv
  6457  0B7C  0878               	movf	??___lldiv,w
  6458  0B7D  07FD               	addwf	___lldiv@counter,f
  6459  0B7E                     l1853:	
  6460  0B7E  1FF3               	btfss	___lldiv@divisor+3,7
  6461  0B7F  2B81               	goto	u2071
  6462  0B80  2B82               	goto	u2070
  6463  0B81                     u2071:	
  6464  0B81  2B71               	goto	l1851
  6465  0B82                     u2070:	
  6466  0B82                     l1855:	
  6467  0B82  3001               	movlw	1
  6468  0B83  00F8               	movwf	??___lldiv
  6469  0B84                     u2085:	
  6470  0B84  1003               	clrc
  6471  0B85  0DF9               	rlf	___lldiv@quotient,f
  6472  0B86  0DFA               	rlf	___lldiv@quotient+1,f
  6473  0B87  0DFB               	rlf	___lldiv@quotient+2,f
  6474  0B88  0DFC               	rlf	___lldiv@quotient+3,f
  6475  0B89  0BF8               	decfsz	??___lldiv,f
  6476  0B8A  2B84               	goto	u2085
  6477  0B8B                     l1857:	
  6478  0B8B  0873               	movf	___lldiv@divisor+3,w
  6479  0B8C  0277               	subwf	___lldiv@dividend+3,w
  6480  0B8D  1D03               	skipz
  6481  0B8E  2B99               	goto	u2095
  6482  0B8F  0872               	movf	___lldiv@divisor+2,w
  6483  0B90  0276               	subwf	___lldiv@dividend+2,w
  6484  0B91  1D03               	skipz
  6485  0B92  2B99               	goto	u2095
  6486  0B93  0871               	movf	___lldiv@divisor+1,w
  6487  0B94  0275               	subwf	___lldiv@dividend+1,w
  6488  0B95  1D03               	skipz
  6489  0B96  2B99               	goto	u2095
  6490  0B97  0870               	movf	___lldiv@divisor,w
  6491  0B98  0274               	subwf	___lldiv@dividend,w
  6492  0B99                     u2095:	
  6493  0B99  1C03               	skipc
  6494  0B9A  2B9C               	goto	u2091
  6495  0B9B  2B9D               	goto	u2090
  6496  0B9C                     u2091:	
  6497  0B9C  2BAC               	goto	l1863
  6498  0B9D                     u2090:	
  6499  0B9D                     l1859:	
  6500  0B9D  0870               	movf	___lldiv@divisor,w
  6501  0B9E  02F4               	subwf	___lldiv@dividend,f
  6502  0B9F  0871               	movf	___lldiv@divisor+1,w
  6503  0BA0  1C03               	skipc
  6504  0BA1  0F71               	incfsz	___lldiv@divisor+1,w
  6505  0BA2  02F5               	subwf	___lldiv@dividend+1,f
  6506  0BA3  0872               	movf	___lldiv@divisor+2,w
  6507  0BA4  1C03               	skipc
  6508  0BA5  0F72               	incfsz	___lldiv@divisor+2,w
  6509  0BA6  02F6               	subwf	___lldiv@dividend+2,f
  6510  0BA7  0873               	movf	___lldiv@divisor+3,w
  6511  0BA8  1C03               	skipc
  6512  0BA9  0F73               	incfsz	___lldiv@divisor+3,w
  6513  0BAA  02F7               	subwf	___lldiv@dividend+3,f
  6514  0BAB                     l1861:	
  6515  0BAB  1479               	bsf	___lldiv@quotient,0
  6516  0BAC                     l1863:	
  6517  0BAC  3001               	movlw	1
  6518  0BAD                     u2105:	
  6519  0BAD  1003               	clrc
  6520  0BAE  0CF3               	rrf	___lldiv@divisor+3,f
  6521  0BAF  0CF2               	rrf	___lldiv@divisor+2,f
  6522  0BB0  0CF1               	rrf	___lldiv@divisor+1,f
  6523  0BB1  0CF0               	rrf	___lldiv@divisor,f
  6524  0BB2  3EFF               	addlw	-1
  6525  0BB3  1D03               	skipz
  6526  0BB4  2BAD               	goto	u2105
  6527  0BB5                     l1865:	
  6528  0BB5  3001               	movlw	1
  6529  0BB6  02FD               	subwf	___lldiv@counter,f
  6530  0BB7  1D03               	btfss	3,2
  6531  0BB8  2BBA               	goto	u2111
  6532  0BB9  2BBB               	goto	u2110
  6533  0BBA                     u2111:	
  6534  0BBA  2B82               	goto	l1855
  6535  0BBB                     u2110:	
  6536  0BBB                     l1867:	
  6537  0BBB  087C               	movf	___lldiv@quotient+3,w
  6538  0BBC  00F3               	movwf	?___lldiv+3
  6539  0BBD  087B               	movf	___lldiv@quotient+2,w
  6540  0BBE  00F2               	movwf	?___lldiv+2
  6541  0BBF  087A               	movf	___lldiv@quotient+1,w
  6542  0BC0  00F1               	movwf	?___lldiv+1
  6543  0BC1  0879               	movf	___lldiv@quotient,w
  6544  0BC2  00F0               	movwf	?___lldiv
  6545  0BC3                     l305:	
  6546  0BC3  0008               	return
  6547  0BC4                     __end_of___lldiv:	
  6548  007E                     btemp	set	126	;btemp
  6549  007E                     wtemp0	set	126


Data Sizes:
    Strings     21
    Constant    10
    Data        0
    BSS         11
    Persistent  0
    Stack       0

Auto Spaces:
    Space          Size  Autos    Used
    COMMON           14     14      14
    BANK0            80     72      79
    BANK1            80      0       4
    BANK3            96      0       0
    BANK2            96      0       0

Pointer List with Targets:

    sprintf@f	PTR const unsigned char  size(1) Largest target is 3
		 -> STR_6(CODE[3]), 

    sprintf@sp	PTR unsigned char  size(1) Largest target is 4
		 -> lcd_write_int@buffer(BANK0[4]), 

    sprintf@ap	PTR void [1] size(1) Largest target is 2
		 -> ?_sprintf(BANK0[2]), 

    lcd_write_string@var	PTR unsigned char  size(2) Largest target is 6
		 -> lcd_write_int@buffer(BANK0[4]), STR_5(CODE[2]), STR_4(CODE[3]), STR_3(CODE[5]), 
		 -> STR_2(CODE[6]), STR_1(CODE[4]), 


Critical Paths under _main in COMMON

    _main->___xxtofl
    _sprintf->___lwmod
    ___lwmod->___lwdiv
    _lcd_write_string->_lcd_write_char
    _lcd_set_cursor->_lcd_cmd
    _lcd_clr->_lcd_cmd
    _initLCD->_lcd_cmd
    ___xxtofl->_I2C_Master_Read
    ___flsub->___xxtofl
    ___flmul->___xxtofl
    _I2C_Master_Init->___lldiv

Critical Paths under _main in BANK0

    _main->___fldiv
    _lcd_write_int->_sprintf
    ___flsub->___fladd
    ___flmul->___flsub
    ___fldiv->___flmul

Critical Paths under _main in BANK1

    None.

Critical Paths under _main in BANK3

    None.

Critical Paths under _main in BANK2

    None.

Call Graph Tables:

 ---------------------------------------------------------------------------------
 (Depth) Function   	        Calls       Base Space   Used Autos Params    Refs
 ---------------------------------------------------------------------------------
 (0) _main                                                 4     4      0   10944
                                             68 BANK0      4     4      0
                    _I2C_Master_Init
                    _I2C_Master_Read
                   _I2C_Master_Start
                    _I2C_Master_Stop
                   _I2C_Master_Write
                            ___fldiv
                            ___flmul
                            ___flsub
                            ___fltol
                           ___xxtofl
                            _initLCD
                            _lcd_clr
                     _lcd_set_cursor
                     _lcd_write_char
                      _lcd_write_int
                   _lcd_write_string
 ---------------------------------------------------------------------------------
 (1) _lcd_write_int                                        8     8      0    1855
                                             13 BANK0      8     8      0
                   _lcd_write_string
                            _sprintf
 ---------------------------------------------------------------------------------
 (2) _sprintf                                             21    18      3    1211
                                              0 BANK0     13    10      3
                            ___lwdiv
                            ___lwmod
 ---------------------------------------------------------------------------------
 (3) ___lwmod                                              6     2      4     311
                                              8 COMMON     6     2      4
                            ___lwdiv (ARG)
 ---------------------------------------------------------------------------------
 (3) ___lwdiv                                              8     4      4     314
                                              0 COMMON     8     4      4
 ---------------------------------------------------------------------------------
 (1) _lcd_write_string                                     7     5      2     568
                                              3 COMMON     7     5      2
                     _lcd_write_char
 ---------------------------------------------------------------------------------
 (2) _lcd_write_char                                       3     3      0      22
                                              0 COMMON     3     3      0
 ---------------------------------------------------------------------------------
 (1) _lcd_set_cursor                                       2     1      1     642
                                              3 COMMON     2     1      1
                            _lcd_cmd
 ---------------------------------------------------------------------------------
 (1) _lcd_clr                                              0     0      0      22
                            _lcd_cmd
 ---------------------------------------------------------------------------------
 (1) _initLCD                                              2     2      0      22
                                              3 COMMON     2     2      0
                            _lcd_cmd
 ---------------------------------------------------------------------------------
 (2) _lcd_cmd                                              3     3      0      22
                                              0 COMMON     3     3      0
 ---------------------------------------------------------------------------------
 (1) ___xxtofl                                            14    10      4     474
                                              6 COMMON     8     4      4
                                              0 BANK0      6     6      0
                    _I2C_Master_Read (ARG)
 ---------------------------------------------------------------------------------
 (1) ___fltol                                             11     7      4     381
                                              0 COMMON    11     7      4
 ---------------------------------------------------------------------------------
 (1) ___flsub                                              8     0      8    2333
                                              8 BANK0      8     0      8
                            ___fladd
                           ___xxtofl (ARG)
 ---------------------------------------------------------------------------------
 (2) ___fladd                                             20    12      8    2136
                                              0 COMMON    12     4      8
                                              0 BANK0      8     8      0
 ---------------------------------------------------------------------------------
 (1) ___flmul                                             26    18      8    2569
                                             16 BANK0     26    18      8
                          __Umul8_16
                            ___flsub (ARG)
                           ___xxtofl (ARG)
 ---------------------------------------------------------------------------------
 (2) __Umul8_16                                            9     7      2     799
                                              0 COMMON     9     7      2
 ---------------------------------------------------------------------------------
 (1) ___fldiv                                             26    18      8    1273
                                             42 BANK0     26    18      8
                            ___flmul (ARG)
 ---------------------------------------------------------------------------------
 (1) _I2C_Master_Write                                     2     0      2     174
                                              0 COMMON     2     0      2
                    _I2C_Master_Wait
 ---------------------------------------------------------------------------------
 (1) _I2C_Master_Stop                                      0     0      0       0
                    _I2C_Master_Wait
 ---------------------------------------------------------------------------------
 (1) _I2C_Master_Start                                     0     0      0       0
                    _I2C_Master_Wait
 ---------------------------------------------------------------------------------
 (1) _I2C_Master_Read                                      6     4      2     197
                                              0 COMMON     6     4      2
                    _I2C_Master_Wait
 ---------------------------------------------------------------------------------
 (2) _I2C_Master_Wait                                      0     0      0       0
 ---------------------------------------------------------------------------------
 (1) _I2C_Master_Init                                      8     4      4     412
                                              0 BANK0      8     4      4
                            ___lldiv
 ---------------------------------------------------------------------------------
 (2) ___lldiv                                             14     6      8     314
                                              0 COMMON    14     6      8
 ---------------------------------------------------------------------------------
 Estimated maximum stack depth 3
 ---------------------------------------------------------------------------------

 Call Graph Graphs:

 _main (ROOT)
   _I2C_Master_Init
     ___lldiv
   _I2C_Master_Read
     _I2C_Master_Wait
   _I2C_Master_Start
     _I2C_Master_Wait
   _I2C_Master_Stop
     _I2C_Master_Wait
   _I2C_Master_Write
     _I2C_Master_Wait
   ___fldiv
     ___flmul (ARG)
       __Umul8_16
       ___flsub (ARG)
         ___fladd
         ___xxtofl (ARG)
           _I2C_Master_Read (ARG)
             _I2C_Master_Wait
       ___xxtofl (ARG)
         _I2C_Master_Read (ARG)
           _I2C_Master_Wait
   ___flmul
     __Umul8_16
     ___flsub (ARG)
       ___fladd
       ___xxtofl (ARG)
         _I2C_Master_Read (ARG)
           _I2C_Master_Wait
     ___xxtofl (ARG)
       _I2C_Master_Read (ARG)
         _I2C_Master_Wait
   ___flsub
     ___fladd
     ___xxtofl (ARG)
       _I2C_Master_Read (ARG)
         _I2C_Master_Wait
   ___fltol
   ___xxtofl
     _I2C_Master_Read (ARG)
       _I2C_Master_Wait
   _initLCD
     _lcd_cmd
   _lcd_clr
     _lcd_cmd
   _lcd_set_cursor
     _lcd_cmd
   _lcd_write_char
   _lcd_write_int
     _lcd_write_string
       _lcd_write_char
     _sprintf
       ___lwdiv
       ___lwmod
         ___lwdiv (ARG)
   _lcd_write_string
     _lcd_write_char

 Address spaces:
Name               Size   Autos  Total    Cost      Usage
BITCOMMON            E      0       0       0        0.0%
EEDATA             100      0       0       0        0.0%
NULL                 0      0       0       0        0.0%
CODE                 0      0       0       0        0.0%
COMMON               E      E       E       1      100.0%
BITSFR0              0      0       0       1        0.0%
SFR0                 0      0       0       1        0.0%
BITSFR1              0      0       0       2        0.0%
SFR1                 0      0       0       2        0.0%
STACK                0      0       0       2        0.0%
ABS                  0      0      61       3        0.0%
BITBANK0            50      0       0       4        0.0%
BITSFR3              0      0       0       4        0.0%
SFR3                 0      0       0       4        0.0%
BANK0               50     48      4F       5       98.8%
BITSFR2              0      0       0       5        0.0%
SFR2                 0      0       0       5        0.0%
BITBANK1            50      0       0       6        0.0%
BANK1               50      0       4       7        5.0%
BITBANK3            60      0       0       8        0.0%
BANK3               60      0       0       9        0.0%
BITBANK2            60      0       0      10        0.0%
BANK2               60      0       0      11        0.0%
DATA                 0      0      61      12        0.0%


Microchip Technology PIC Macro Assembler V2.10 build 88905656 
Symbol Table                                                                                   Sat Feb 22 01:26:21 2020

             ___fldiv@aexp 0063               ___fldiv@bexp 0062                          pc 0002  
             ___fldiv@sign 005B                __CFG_CP$OFF 0000                         l93 0A4E  
                       l96 0944                         l99 0950                         fsr 0004  
      __Umul8_16@word_mpld 0076                        l102 0930                        l111 0943  
                      l114 0A0E                        l115 0A11                        l116 0A16  
                      l108 0939                        l132 0B5D                        l135 0964  
                      l143 097F                        l152 0ACA                        l305 0BC3  
                      l138 0927                        l146 0016                        l155 099D  
           lcd_cmd@command 0072                        l265 0DE1                        l620 01F3  
                      l604 047D                        l605 048B                        l541 0B0E  
                      l462 0C28                        l710 0CCF                        l702 0CA7  
                      l455 0C3D                        l551 0A88                        l640 01D7  
                      l608 09C1                        l465 0C3D                        l642 01E7  
                      l634 0165                        l618 0073                        l562 0257  
                      l715 09D6                        l717 09E8                        l709 0CC3  
                      l670 07E0                        l566 0300                        l583 03D1  
                      l575 048B                        l664 0758                        l568 02D5  
                      l593 0419                        l658 07EC                        l587 03F7  
                      l596 0459                        l696 0C62                        l698 0CF9  
                      _GIE 005F               __CFG_CPD$OFF 0000                        _adc 0068  
                      fsr0 0004                        indf 0000               ___flmul@aexp 0042  
             ___flmul@bexp 0043               ___flmul@sign 003D               ___flmul@temp 0048  
             ___flmul@prod 0044            ?_lcd_set_cursor 0073               __CFG_LVP$OFF 0000  
             ___fltol@exp1 007A                       l2001 03B4                       l2011 03E7  
                     l2003 03C3                       l2101 0A1B                       l2021 0400  
                     l2013 03F2                       l2005 03D9                       l2103 0A1E  
                     l2031 0410                       l2023 0405                       l2015 03F6  
                     l2007 03DE                       l2111 0921                       l2105 0A4B  
                     l2121 0928                       l2201 0029                       l2041 0431  
                     l2033 0416                       l2017 03FB                       l2025 0407  
                     l2113 0966                       l2107 0A4C                       l2131 09EE  
                     l2123 092D                       l2203 002E                       l2211 003E  
                     l2051 046B                       l2043 0435                       l2019 03FE  
                     l2027 040B                       l2115 096B                       l2109 0A4D  
                     l2141 0A12                       l2133 09F6                       l2125 093A  
                     l2221 0056                       l2213 0046                       l2205 0033  
                     l2061 0486                       l2053 0470                       l2045 0455  
                     l2037 041E                       l2029 040C                       l2117 0972  
                     l2135 09FF                       l2127 093F                       l2311 019A  
                     l2303 016A                       l2223 005B                       l2231 006B  
                     l2215 004B                       l2207 003B                       l2071 09D0  
                     l2063 048A                       l2055 0471                       l2047 045E  
                     l2039 0423                       l2151 0BC4                       l2119 0978  
                     l2137 0A04                       l2129 09E9                       l2145 0931  
                     l2321 01CE                       l2305 016F                       l2313 01A0  
                     l2233 007B                       l2241 0094                       l2225 0060  
                     l2217 0051                       l2209 003C                       l2073 09DF  
                     l2065 09C3                       l2401 05F9                       l2057 0475  
                     l2049 0463                       l2161 0BEE                       l2153 0BCF  
                     l2081 0B18                       l2139 0A0A                       l2147 0936  
                     l2323 01D6                       l2315 01AD                       l2307 017D  
                     l2251 00BC                       l2243 0099                       l2235 0087  
                     l2227 0068                       l2219 0055                       l2075 09E4  
                     l2067 09C5                       l2411 0689                       l2403 0616  
                     l2059 0477                       l2163 0BF6                       l2091 0B45  
                     l2083 0B1E                       l2325 01DD                       l2317 01BB  
                     l2309 0181                       l2261 00E5                       l2253 00C4  
                     l2237 008B                       l2229 0069                       l2069 09CC  
                     l2421 071B                       l2413 06B6                       l2405 062F  
                     l2341 049D                       l2181 0C1D                       l2173 0C04  
                     l2165 0BF8                       l2157 0BD8                       l2501 0CB9  
                     l2093 0B4B                       l2085 0B2C                       l2149 0983  
                     l2327 01E1                       l2319 01CA                       l2271 0106  
                     l2263 00E9                       l2255 00CC                       l2247 00A2  
                     l2423 0724                       l2431 0738                       l2415 06DC  
                     l2407 064C                       l2351 04B2                       l2343 049E  
                     l2335 048C                       l2183 0C2D                       l2167 0BFC  
                     l2175 0C16                       l2159 0BED                       l2511 0CEC  
                     l2503 0CBD                       l2095 0B51                       l2087 0B35  
                     l2079 0B0F                       l1711 0007                       l2329 01E3  
                     l2281 0128                       l2273 0114                       l2265 00EA  
                     l2257 00CE                       l2249 00B4                       l2193 0017  
                     l2433 073C                       l2425 0728                       l2417 0704  
                     l2409 0679                       l2361 04CA                       l2353 04BA  
                     l2345 04A3                       l2337 0493                       l2185 0C32  
                     l2513 0CF0                       l2505 0CC7                       l2097 0B57  
                     l2089 0B3F                       l1713 0009                       l1721 0AD3  
                     l1801 0D3A                       l2601 0FEA                       l2521 0DF0  
                     l2099 0A17                       l2283 0131                       l2291 0145  
                     l2259 00D3                       l2267 00F3                       l2275 0118  
                     l2195 001E                       l2451 078D                       l2443 075D  
                     l2435 073D                       l2427 0729                       l2419 070D  
                     l2371 04E6                       l2363 04CF                       l2355 04BF  
                     l2347 04A8                       l2339 0499                       l2187 099E  
                     l2515 0CF1                       l2507 0CD1                       l1715 0013  
                     l1731 0AF6                       l1723 0AD6                       l1803 0D3E  
                     l2603 0FF4                       l2531 0E1A                       l2523 0DF5  
                     l2293 0149                       l2285 0135                       l2277 011E  
                     l2269 0105                       l2197 0024                       l2461 07C4  
                     l2445 0762                       l2453 0793                       l2437 0741  
                     l2429 0732                       l2381 0509                       l2373 04EB  
                     l2365 04D4                       l2357 04C5                       l2349 04B0  
                     l1901 0239                       l2189 09A2                       l2509 0CE7  
                     l1709 0004                       l1733 0AFC                       l1725 0ADD  
                     l1717 0ACB                       l1821 0D73                       l1805 0D42  
                     l2541 0E41                       l2533 0E22                       l2525 0E04  
                     l2295 014A                       l2287 0136                       l2279 0126  
                     l2199 0028                       l2471 07E4                       l2463 07C6  
                     l2455 07A0                       l2447 0770                       l2439 0755  
                     l2391 0597                       l2383 0516                       l2375 04F0  
                     l2367 04DC                       l2359 04C9                       l1911 024D  
                     l1903 023A                       l1735 0AFD                       l1727 0AE1  
                     l1719 0ACD                       l1751 0A63                       l1743 0A4F  
                     l1831 0DB7                       l1823 0D79                       l1815 0D4D  
                     l1807 0D46                       l2551 0E86                       l2543 0E4A  
                     l2535 0E2B                       l2527 0E09                       l2519 0DE2  
                     l2297 014E                       l2289 013F                       l2465 07D4  
                     l2457 07AB                       l2449 0774                       l2393 05B3  
                     l2385 0533                       l2369 04DE                       l1921 0269  
                     l1905 023F                       l1913 024F                       l2481 0C5A  
                     l1737 0B04                       l1729 0AE5                       l1753 0A67  
                     l1745 0A55                       l1761 0A84                       l1833 0DBE  
                     l1825 0D80                       l1809 0D4B                       l2561 0EE4  
                     l2553 0E8F                       l2545 0E72                       l2537 0E33  
                     l2529 0E11                       l1851 0B71                       l2299 0162  
                     l2467 07D8                       l2459 07BA                       l2395 05BC  
                     l2387 054F                       l2379 04F9                       l1931 027D  
                     l1923 026D                       l1915 025D                       l1907 0244  
                     l2491 0C85                       l2483 0C6A                       l2475 0C41  
                     l1771 0AAE                       l1739 0B0A                       l1755 0A71  
                     l1747 0A58                       l1835 0DC2                       l1827 0D84  
                     l1819 0D69                       l2571 0F75                       l2563 0EF7  
                     l2555 0E9D                       l2547 0E77                       l2539 0E3C  
                     l1861 0BAB                       l1853 0B7E                       l1773 0944  
                     l2469 07D9                       l2397 05CC                       l2389 057B  
                     l1941 0291                       l1933 0281                       l1925 0271  
                     l1917 0261                       l1909 024C                       l2493 0C8C  
                     l2477 0C46                       l1781 0957                       l1765 0A89  
                     l1757 0A77                       l1749 0A5F                       l1829 0D89  
                     l2629 0D27                       l1837 0DCB                       l2581 0F98  
                     l2573 0F7B                       l2565 0F50                       l2557 0EA2  
                     l2549 0E81                       l1863 0BAC                       l1855 0B82  
                     l1847 0B5E                       l1775 094A                       l2399 05E9  
                     l1951 02A2                       l1943 0295                       l1935 0285  
                     l1927 0275                       l1919 0265                       l1871 01F4  
                     l2495 0C90                       l2487 0C73                       l2479 0C4A  
                     l1783 0961                       l1767 0A8C                       l1759 0A7E  
                     l1839 0DDD                       l1791 0D0F                       l2591 0FC2  
                     l2583 0F9E                       l2575 0F83                       l2567 0F63  
                     l2559 0EAC                       l1865 0BB5                       l1857 0B8B  
                     l1849 0B6E                       l1961 02EA                       l1953 02B9  
                     l1945 0299                       l1937 0289                       l1929 0279  
                     l1881 020B                       l1873 01FB                       l2497 0C9E  
                     l2489 0C78                       l1777 0952                       l1769 0AA8  
                     l1793 0D14                       l1785 0CFD                       l2593 0FC8  
                     l2585 0FA6                       l2577 0F8A                       l2569 0F6D  
                     l1859 0B9D                       l1867 0BBB                       l1971 0309  
                     l1963 02EB                       l1955 02D9                       l1947 029D  
                     l1939 028D                       l1891 0223                       l1883 0210  
                     l1875 0201                       l2499 0CAE                       l1779 0955  
                     l1787 0D02                       l2595 0FCE                       l2587 0FB0  
                     l2579 0F90                       l1981 0331                       l1965 02F6  
                     l1957 02E4                       l1949 02A1                       l1893 0228  
                     l1885 0218                       l1877 0205                       l1797 0D15  
                     l1789 0D08                       l2597 0FD8                       l2589 0FB9  
                     l1991 034E                       l1983 033C                       l1975 0312  
                     l1959 02E6                       l1967 02FA                       l1895 022E  
                     l1887 0219                       l1879 0206                       l1799 0D32  
                     l2599 0FE1                       l1985 033E                       l1977 0329  
                     l1969 0304                       l1993 0353                       l1897 022F  
                     l1889 021B                       l1995 0369                       l1987 0342  
                     l1979 032D                       l1899 0235                       l1997 03A9  
                     l1989 0343                       l1999 03AF                       STR_1 0825  
                     STR_2 081A                       STR_3 0820                       STR_4 082C  
                     STR_5 082D                       STR_6 0829                       u2000 0D68  
                     u2001 0D67                       u2010 0D73                       u2011 0D72  
                     u2020 0D79                       u2021 0D78                       u2005 0D64  
                     u2110 0BBB                       u2030 0DCB                       u2111 0BBA  
                     u2031 0DCA                       u3000 0190                       u2200 0261  
                     u2120 0205                       u2040 0DDD                       u2105 0BAD  
                     u2201 0260                       u2121 0204                       u2041 0DDC  
                     u2050 0B6E                       u3010 01AD                       u2210 02B9  
                     u2130 020B                       u2051 0B6D                       u3011 01AC  
                     u2211 02B8                       u2131 020A                       u3020 01CA  
                     u3100 04EB                       u2220 02C2                       u2140 0210  
                     u3021 01C9                       u3005 018B                       u3101 04EA  
                     u2301 031B                       u2221 02C0                       u2141 020F  
                     u2070 0B82                       u3030 01E1                       u3110 04F0  
                     u2310 032D                       u2302 0322                       u2230 02C3  
                     u2150 022E                       u2071 0B81                       u3031 01E0  
                     u3015 01A9                       u3111 04EF                       u2311 032C  
                     u2303 0329                       u2215 02B5                       u2151 022D  
                     u3040 049D                       u2400 03DE                       u2320 0331  
                     u2240 02D9                       u2160 0239                       u2065 0B73  
                     u3025 01C6                       u3201 063E                       u3121 0541  
                     u3041 049C                       u2401 03DD                       u2321 0330  
                     u2241 02D8                       u2161 0238                       u2090 0B9D  
                     u3202 0645                       u3122 0548                       u3050 04A3  
                     u2330 0342                       u2250 02EA                       u2170 023F  
                     u2091 0B9C                       u3211 066B                       u3203 064C  
                     u3131 055D                       u3123 054F                       u3051 04A2  
                     u2331 0341                       u2251 02E9                       u2171 023E  
                     u3212 0672                       u3132 0564                       u3060 04A8  
                     u2500 0435                       u2420 03F6                       u2180 0244  
                     u2085 0B84                       u3221 0698                       u3213 0679  
                     u3141 0589                       u3133 056B                       u3061 04A7  
                     u2501 0434                       u2421 03F5                       u2181 0243  
                     u3310 073C                       u3230 06C2                       u3222 069F  
                     u3142 0590                       u3070 04C9                       u2510 0446  
                     u2430 03FB                       u2350 0369                       u2270 0300  
                     u2190 025D                       u2095 0B99                       u3311 073B  
                     u3223 06A6                       u3151 05A5                       u3143 0597  
                     u3071 04C8                       u2431 03FA                       u2415 03EB  
                     u2351 0368                       u2271 02FF                       u2191 025C  
                     u2600 09E4                       u3400 07D8                       u3320 0741  
                     u3152 05AC                       u3080 04CF                       u2520 0455  
                     u2440 0405                       u2280 0304                       u1800 0AD3  
                     u2601 09E3                       u3401 07D7                       u3321 0740  
                     u3305 072B                       u3241 06CE                       u3153 05B3  
                     u3081 04CE                       u2521 0454                       u2441 0404  
                     u2361 0382                       u2353 0365                       u2345 0347  
                     u2281 0303                       u2265 02EF                       u1801 0AD2  
                     u2610 0A2E                       u3330 0755                       u3250 06EA  
                     u3242 06D5                       u3090 04D4                       u2530 045E  
                     u2450 040B                       u2370 0396                       u2362 0383  
                     u2290 0309                       u3410 0C46                       u3331 0754  
                     u3243 06DC                       u3235 06BD                       u3171 05DB  
                     u3091 04D3                       u2531 045D                       u2515 0441  
                     u2451 040A                       u2371 0397                       u2363 0388  
                     u2291 0308                       u3411 0C45                       u3340 075C  
                     u3172 05E2                       u2540 0463                       u2460 0410  
                     u2380 03B4                       u2372 039C                       u2364 0389  
                     u2700 0C15                       u3500 0CC3                       u3420 0C4A  
                     u2620 096B                       u1820 0AE5                       u1900 0A71  
                     u3341 075B                       u3261 06F6                       u3181 0608  
                     u3173 05E9                       u3165 05B5                       u2541 0462  
                     u2461 040F                       u2381 03B3                       u2373 039D  
                     u2365 038E                       u2701 0C14                       u3501 0CC2  
                     u3421 0C49                       u2621 096A                       u1821 0AE4  
                     u1901 0A70                       u3350 0762                       u3262 06FD  
                     u3182 060F                       u2550 0470                       u2470 0416  
                     u2390 03D9                       u2366 038F                       u2710 0C1C  
                     u3510 0CC7                       u3430 0C6A                       u2630 0978  
                     u2615 0A29                       u3351 0761                       u3263 0704  
                     u3255 06E5                       u3183 0616                       u2551 046F  
                     u2471 0415                       u2391 03D8                       u2711 0C1B  
                     u3511 0CC6                       u3431 0C69                       u2631 0977  
                     u1815 0AD7                       u2640 0A0A                       u2800 0060  
                     u3360 0774                       u2560 0475                       u2480 041D  
                     u3520 0CDC                       u1840 0AF6                       u1920 0A84  
                     u2641 0A09                       u2801 005F                       u3361 0773  
                     u2561 0474                       u2481 041C                       u1841 0AF5  
                     u1921 0A83                       u1905 0A6D                       u2810 007B  
                     u3370 0783                       u3290 0728                       u2570 048A  
                     u2490 0423                       u2730 0C2D                       u2650 0BCF  
                     u3530 0CEC                       u3450 0C8B                       u1930 0A96  
                     u2811 007A                       u3291 0727                       u3275 0706  
                     u3195 0618                       u2571 0489                       u2491 0422  
                     u2731 0C2C                       u2651 0BCE                       u3531 0CEB  
                     u3451 0C8A                       u1835 0AE6                       u1915 0A78  
                     u2900 0126                       u2820 0099                       u2580 09D0  
                     u3380 07A0                       u2740 0C32                       u2660 0BE6  
                     u3540 0CF0                       u1940 0AB8                       u1860 0B0A  
                     u2901 0125                       u2821 0098                       u2581 09CF  
                     u3381 079F                       u3285 071D                       u2741 0C31  
                     u2725 0C1F                       u3541 0CEF                       u3525 0CD7  
                     u3445 0C7D                       u1861 0B09                       u1845 0AF2  
                     u2830 00D3                       u2750 0028                       u3390 07BA  
                     u2670 0BFC                       u3470 0CAD                       u1950 0ACA  
                     u1870 0A55                       u3550 0F83                       u2831 00D2  
                     u2751 0027                       u3391 07B9                       u3375 077E  
                     u2671 0BFB                       u3471 0CAC                       u1951 0AC9  
                     u1855 0AFE                       u1871 0A54                       u3551 0F82  
                     u3607 0EA8                       u1960 094A                       u2920 0135  
                     u2760 002E                       u2680 0C03                       u3560 0FA6  
                     u1961 0949                       u2921 0134                       u2761 002D  
                     u3385 079C                       u2681 0C02                       u2665 0BE1  
                     u3465 0C9F                       u3617 000E                       u3561 0FA5  
                     u1970 0950                       u2770 0033                       u3490 0CBD  
                     u1890 0A67                       u3570 0FC8                       u1971 094F  
                     u2915 012A                       u2771 0032                       u2595 09D7  
                     u3395 07B6                       u3491 0CBC                       u3627 0B13  
                     u1891 0A66                       u3571 0FC7                       _PEIE 005E  
                     u2940 0149                       u2860 00E9                       u2780 0055  
                     u1980 0D08                       u3580 0FCE                       u2941 0148  
                     u2861 00E8                       u2845 00D5                       u2781 0054  
                     u3485 0CB2                       u3637 0B22                       u1885 0A59  
                     u1981 0D07                       u3581 0FCD            _decimalfloatadc 00A0  
                     u2950 014E                       u2790 005B                       u1990 0D42  
                     u2951 014D                       u2935 0138                       u2855 00DE  
                     u2791 005A                       u2695 0C05                       u3647 0B30  
                     u1991 0D41                       u2960 0162                       u2880 0105  
                     u2961 0161                       u2881 0104                       u3657 0B3D  
                     u2970 0169                       u2890 011E                       u2971 0168  
                     u2891 011D                       u2875 00EC                       u3667 095C  
                     u2980 016F                       u2981 016E                       u2885 0101  
                     u3597 0E7D                       u2990 0181                       u2991 0180  
             __CFG_WRT$OFF 0000     __end_of_lcd_write_char 0017                       _main 0DE2  
                     btemp 007E                       start 0000             ?_lcd_write_int 0070  
            __CFG_IESO$OFF 0000            ___fldiv@new_exp 005C           ?_I2C_Master_Init 0020  
         ?_I2C_Master_Read 0070           ?_I2C_Master_Wait 0070           ?_I2C_Master_Stop 0070  
            ___fltol@sign1 0079            __end_of___fladd 048C                      ?_main 0070  
          __end_of___fldiv 01F4              __CFG_WDTE$OFF 0000            __end_of___flmul 07ED  
          __end_of___flsub 09C2            __end_of___fltol 0C3E                      _ANSEL 0188  
          __end_of___lldiv 0BC4            __end_of___lwdiv 0B0F            __end_of___lwmod 0A89  
                    _PORTA 0005                      _PORTB 0006                      _PORTD 0008  
                    _TRISA 0085                      _TRISB 0086                      _TRISD 0088  
                    _SSPIE 0463                      _SSPIF 0063             __CFG_FCMEN$OFF 0000  
          __end_of_lcd_cmd 0965            __end_of_lcd_clr 0928            __end_of_initLCD 0B5E  
          __end_of_dpowers 081A                      _count 006C             __CFG_BOREN$OFF 0000  
                    pclath 000A            ?_lcd_write_char 0070                      status 0003  
                    wtemp0 007E            __end_of_sprintf 0DE2             __CFG_MCLRE$OFF 0000  
          __initialization 07ED               __end_of_main 1000                     ??_main 0064  
        ?_I2C_Master_Start 0070          ?_I2C_Master_Write 0070         ??_I2C_Master_Start 0070  
       ??_I2C_Master_Write 0072                     _ANSELH 0189            ??_lcd_write_int 002D  
                   _SSPADD 0093                     _TRISC3 043B                     _TRISC4 043C  
                   _SSPCON 0014                     _SSPBUF 0013           __end_of___xxtofl 0CFA  
        lcd_write_char@var 0072             __CFG_PWRTE$OFF 0000                  ??___fladd 0020  
                ??___fldiv 0052                  ??___flmul 0038                  ??___flsub 007E  
                ??___fltol 0074                  ??___lldiv 0078                  ??___lwdiv 0074  
                ??___lwmod 007C   __end_of_lcd_write_string 0ACB                  ??_lcd_cmd 0070  
                ??_lcd_clr 0073                  ??_initLCD 0073         __size_of__Umul8_16 0027  
                ??_sprintf 0023               ___xxtofl@arg 0022               ___xxtofl@exp 0021  
        lcd_write_string@i 0078               ___xxtofl@val 0076    __end_of__initialization 07FC  
               ___fltol@f1 0070             __pcstackCOMMON 0070           ??_lcd_set_cursor 0074  
               __pbssBANK0 0068                 __pbssBANK1 00A0                 _decimaladc 006D  
        __end_of__Umul8_16 09E9                 __pmaintext 0DE2                  ?___xxtofl 0076  
         ??_lcd_write_char 0070                    _SSPCON2 0091                    _SSPSTAT 0094  
               __stringtab 0800                    ___fladd 01F4                    ___fldiv 0017  
                  ___flmul 048C                    ___flsub 099E                    ___fltol 0BC4  
                  ___lldiv 0B5E                    ___lwdiv 0ACB                    ___lwmod 0A4F  
                  __ptext1 0980                    __ptext2 0CFA                    __ptext3 0A4F  
                  __ptext4 0ACB                    __ptext5 0A89                    __ptext6 0003  
                  __ptext7 0965                    __ptext8 0921                    __ptext9 0B0F  
                  _lcd_cmd 0951                    _lcd_clr 0921                    _initLCD 0B0F  
                  _dpowers 0810                 ??___xxtofl 007A   __size_of_I2C_Master_Init 0038  
 __size_of_I2C_Master_Read 002E   __size_of_I2C_Master_Wait 000D   __size_of_I2C_Master_Stop 0009  
                  _sprintf 0CFA       end_of_initialization 07FC  __size_of_I2C_Master_Start 0009  
__size_of_I2C_Master_Write 000A            ___lldiv@divisor 0070            ___lldiv@counter 007D  
         I2C_Master_Init@c 0020           I2C_Master_Read@a 0070                  _PORTBbits 0006  
        ?_lcd_write_string 0073                ___fladd@grs 007B         ??_lcd_write_string 0075  
            ___xxtofl@sign 0020                  _TRISCbits 0087                ___fldiv@grs 005E  
              ___fldiv@rem 0057                ___flmul@grs 003E      __end_of_lcd_write_int 099E  
      start_initialization 07ED          ??_I2C_Master_Init 0024          ??_I2C_Master_Read 0072  
        ??_I2C_Master_Wait 0070          ??_I2C_Master_Stop 0070   __CFG_FOSC$INTRC_NOCLKOUT 0000  
                __Umul8_16 09C2                  ___fladd@a 0074                  ___fladd@b 0070  
                ___fldiv@a 004A                  ___fldiv@b 004E                  ___flmul@a 0034  
                ___flmul@b 0030                  ___flsub@a 0028                  ___flsub@b 002C  
                ___latbits 0002              __pcstackBANK0 0020          __size_of___xxtofl 00BC  
              sprintf@flag 0027                sprintf@prec 0028           _I2C_Master_Start 0928  
         _I2C_Master_Write 093A           ___lwdiv@dividend 0072                   ?___fladd 0070  
                 ?___fldiv 004A                   ?___flmul 0030                   ?___flsub 0028  
                 ?___fltol 0070                   ?___lldiv 0070                 ?__Umul8_16 0070  
                 ?___lwdiv 0070                   ?___lwmod 0078                  __pstrings 0800  
                 ?_lcd_cmd 0070                   ?_lcd_clr 0070                   ?_initLCD 0070  
                _enteroadc 006E           ___lwdiv@quotient 0075                   ?_sprintf 0020  
  __size_of_lcd_set_cursor 001B                __stringbase 080F        I2C_Master_Read@temp 0074  
__size_of_lcd_write_string 0042    __size_of_lcd_write_char 0014                ??__Umul8_16 0072  
         __size_of___fladd 0298           __size_of___fldiv 01DD           __size_of___flmul 0361  
         __size_of___flsub 0024           __size_of___fltol 007A           __size_of___lldiv 0066  
         __size_of___lwdiv 0044           __size_of___lwmod 003A         __end_of__stringtab 0810  
         __size_of_lcd_cmd 0014           __size_of_lcd_clr 0007                 sprintf@val 0029  
       lcd_set_cursor@posx 0074         lcd_set_cursor@posy 0073            _I2C_Master_Init 0A17  
          _I2C_Master_Read 09E9           __size_of_initLCD 004F                   ___xxtofl 0C3E  
          _I2C_Master_Wait 0944            _I2C_Master_Stop 0931            ___lwdiv@divisor 0070  
          ___lwdiv@counter 0077                   __ptext10 0951                   __ptext11 0C3E  
                 __ptext20 0928                   __ptext12 0BC4                   __ptext21 09E9  
                 __ptext13 099E                   __ptext22 0944                   __ptext14 01F4  
                 __ptext23 0A17                   __ptext15 048C                   __ptext24 0B5E  
                 __ptext16 09C2                   __ptext17 0017                   __ptext18 093A  
                 __ptext19 0931          __CFG_BOR4V$BOR40V 0000           __size_of_sprintf 00E8  
      lcd_write_int@buffer 0030              __size_of_main 021E        lcd_write_int@numero 0034  
 __end_of_I2C_Master_Start 0931   __end_of_I2C_Master_Write 0944     __size_of_lcd_write_int 001E  
           _lcd_set_cursor 0965                  sprintf@ap 0026                  sprintf@sp 002B  
         ___lwmod@dividend 007A           ___lldiv@dividend 0074                  stringcode 080A  
  __end_of_I2C_Master_Init 0A4F    __end_of_I2C_Master_Read 0A17    __end_of_I2C_Master_Wait 0951  
  __end_of_I2C_Master_Stop 093A     __Umul8_16@multiplicand 0070                   sprintf@c 002C  
                 sprintf@f 0020           ___lldiv@quotient 0079          I2C_Master_Write@d 0070  
          ___lwmod@divisor 0078            ___lwmod@counter 007D                   stringdir 080A  
                 stringtab 0800                _SSPCON2bits 0091     __end_of_lcd_set_cursor 0980  
            ___fladd@signs 0078           _lcd_write_string 0A89               ___fladd@aexp 0079  
             ___fladd@bexp 007A       __Umul8_16@multiplier 0078             _lcd_write_char 0003  
      lcd_write_string@var 0073              _lcd_write_int 0980          __Umul8_16@product 0074  
